
/home/mandelbrot/ics2020/am-kernels/tests/riscv-tests/build/bne-riscv64-nemu.elf：     文件格式 elf64-littleriscv


Disassembly of section .text:

0000000080000000 <_start>:
    80000000:	4189                	li	gp,2
    80000002:	4081                	li	ra,0
    80000004:	4105                	li	sp,1
    80000006:	00209663          	bne	ra,sp,80000012 <_start+0x12>
    8000000a:	1c301763          	bne	zero,gp,800001d8 <fail>
    8000000e:	00301663          	bne	zero,gp,8000001a <test_3>
    80000012:	fe209ee3          	bne	ra,sp,8000000e <_start+0xe>
    80000016:	1c301163          	bne	zero,gp,800001d8 <fail>

000000008000001a <test_3>:
    8000001a:	418d                	li	gp,3
    8000001c:	4085                	li	ra,1
    8000001e:	4101                	li	sp,0
    80000020:	00209663          	bne	ra,sp,8000002c <test_3+0x12>
    80000024:	1a301a63          	bne	zero,gp,800001d8 <fail>
    80000028:	00301663          	bne	zero,gp,80000034 <test_4>
    8000002c:	fe209ee3          	bne	ra,sp,80000028 <test_3+0xe>
    80000030:	1a301463          	bne	zero,gp,800001d8 <fail>

0000000080000034 <test_4>:
    80000034:	4191                	li	gp,4
    80000036:	50fd                	li	ra,-1
    80000038:	4105                	li	sp,1
    8000003a:	00209663          	bne	ra,sp,80000046 <test_4+0x12>
    8000003e:	18301d63          	bne	zero,gp,800001d8 <fail>
    80000042:	00301663          	bne	zero,gp,8000004e <test_5>
    80000046:	fe209ee3          	bne	ra,sp,80000042 <test_4+0xe>
    8000004a:	18301763          	bne	zero,gp,800001d8 <fail>

000000008000004e <test_5>:
    8000004e:	4195                	li	gp,5
    80000050:	4085                	li	ra,1
    80000052:	517d                	li	sp,-1
    80000054:	00209663          	bne	ra,sp,80000060 <test_5+0x12>
    80000058:	18301063          	bne	zero,gp,800001d8 <fail>
    8000005c:	00301663          	bne	zero,gp,80000068 <test_6>
    80000060:	fe209ee3          	bne	ra,sp,8000005c <test_5+0xe>
    80000064:	16301a63          	bne	zero,gp,800001d8 <fail>

0000000080000068 <test_6>:
    80000068:	4199                	li	gp,6
    8000006a:	4081                	li	ra,0
    8000006c:	4101                	li	sp,0
    8000006e:	00209463          	bne	ra,sp,80000076 <test_6+0xe>
    80000072:	00301463          	bne	zero,gp,8000007a <test_6+0x12>
    80000076:	16301163          	bne	zero,gp,800001d8 <fail>
    8000007a:	fe209ee3          	bne	ra,sp,80000076 <test_6+0xe>

000000008000007e <test_7>:
    8000007e:	419d                	li	gp,7
    80000080:	4085                	li	ra,1
    80000082:	4105                	li	sp,1
    80000084:	00209463          	bne	ra,sp,8000008c <test_7+0xe>
    80000088:	00301463          	bne	zero,gp,80000090 <test_7+0x12>
    8000008c:	14301663          	bne	zero,gp,800001d8 <fail>
    80000090:	fe209ee3          	bne	ra,sp,8000008c <test_7+0xe>

0000000080000094 <test_8>:
    80000094:	41a1                	li	gp,8
    80000096:	50fd                	li	ra,-1
    80000098:	517d                	li	sp,-1
    8000009a:	00209463          	bne	ra,sp,800000a2 <test_8+0xe>
    8000009e:	00301463          	bne	zero,gp,800000a6 <test_8+0x12>
    800000a2:	12301b63          	bne	zero,gp,800001d8 <fail>
    800000a6:	fe209ee3          	bne	ra,sp,800000a2 <test_8+0xe>

00000000800000aa <test_9>:
    800000aa:	41a5                	li	gp,9
    800000ac:	4201                	li	tp,0
    800000ae:	4081                	li	ra,0
    800000b0:	4101                	li	sp,0
    800000b2:	12209363          	bne	ra,sp,800001d8 <fail>
    800000b6:	0205                	addi	tp,tp,1
    800000b8:	4289                	li	t0,2
    800000ba:	fe521ae3          	bne	tp,t0,800000ae <test_9+0x4>

00000000800000be <test_10>:
    800000be:	41a9                	li	gp,10
    800000c0:	4201                	li	tp,0
    800000c2:	4081                	li	ra,0
    800000c4:	4101                	li	sp,0
    800000c6:	0001                	nop
    800000c8:	10209863          	bne	ra,sp,800001d8 <fail>
    800000cc:	0205                	addi	tp,tp,1
    800000ce:	4289                	li	t0,2
    800000d0:	fe5219e3          	bne	tp,t0,800000c2 <test_10+0x4>

00000000800000d4 <test_11>:
    800000d4:	41ad                	li	gp,11
    800000d6:	4201                	li	tp,0
    800000d8:	4081                	li	ra,0
    800000da:	4101                	li	sp,0
    800000dc:	0001                	nop
    800000de:	0001                	nop
    800000e0:	0e209c63          	bne	ra,sp,800001d8 <fail>
    800000e4:	0205                	addi	tp,tp,1
    800000e6:	4289                	li	t0,2
    800000e8:	fe5218e3          	bne	tp,t0,800000d8 <test_11+0x4>

00000000800000ec <test_12>:
    800000ec:	41b1                	li	gp,12
    800000ee:	4201                	li	tp,0
    800000f0:	4081                	li	ra,0
    800000f2:	0001                	nop
    800000f4:	4101                	li	sp,0
    800000f6:	0e209163          	bne	ra,sp,800001d8 <fail>
    800000fa:	0205                	addi	tp,tp,1
    800000fc:	4289                	li	t0,2
    800000fe:	fe5219e3          	bne	tp,t0,800000f0 <test_12+0x4>

0000000080000102 <test_13>:
    80000102:	41b5                	li	gp,13
    80000104:	4201                	li	tp,0
    80000106:	4081                	li	ra,0
    80000108:	0001                	nop
    8000010a:	4101                	li	sp,0
    8000010c:	0001                	nop
    8000010e:	0c209563          	bne	ra,sp,800001d8 <fail>
    80000112:	0205                	addi	tp,tp,1
    80000114:	4289                	li	t0,2
    80000116:	fe5218e3          	bne	tp,t0,80000106 <test_13+0x4>

000000008000011a <test_14>:
    8000011a:	41b9                	li	gp,14
    8000011c:	4201                	li	tp,0
    8000011e:	4081                	li	ra,0
    80000120:	0001                	nop
    80000122:	0001                	nop
    80000124:	4101                	li	sp,0
    80000126:	0a209963          	bne	ra,sp,800001d8 <fail>
    8000012a:	0205                	addi	tp,tp,1
    8000012c:	4289                	li	t0,2
    8000012e:	fe5218e3          	bne	tp,t0,8000011e <test_14+0x4>

0000000080000132 <test_15>:
    80000132:	41bd                	li	gp,15
    80000134:	4201                	li	tp,0
    80000136:	4081                	li	ra,0
    80000138:	4101                	li	sp,0
    8000013a:	08209f63          	bne	ra,sp,800001d8 <fail>
    8000013e:	0205                	addi	tp,tp,1
    80000140:	4289                	li	t0,2
    80000142:	fe521ae3          	bne	tp,t0,80000136 <test_15+0x4>

0000000080000146 <test_16>:
    80000146:	41c1                	li	gp,16
    80000148:	4201                	li	tp,0
    8000014a:	4081                	li	ra,0
    8000014c:	4101                	li	sp,0
    8000014e:	0001                	nop
    80000150:	08209463          	bne	ra,sp,800001d8 <fail>
    80000154:	0205                	addi	tp,tp,1
    80000156:	4289                	li	t0,2
    80000158:	fe5219e3          	bne	tp,t0,8000014a <test_16+0x4>

000000008000015c <test_17>:
    8000015c:	41c5                	li	gp,17
    8000015e:	4201                	li	tp,0
    80000160:	4081                	li	ra,0
    80000162:	4101                	li	sp,0
    80000164:	0001                	nop
    80000166:	0001                	nop
    80000168:	06209863          	bne	ra,sp,800001d8 <fail>
    8000016c:	0205                	addi	tp,tp,1
    8000016e:	4289                	li	t0,2
    80000170:	fe5218e3          	bne	tp,t0,80000160 <test_17+0x4>

0000000080000174 <test_18>:
    80000174:	41c9                	li	gp,18
    80000176:	4201                	li	tp,0
    80000178:	4081                	li	ra,0
    8000017a:	0001                	nop
    8000017c:	4101                	li	sp,0
    8000017e:	04209d63          	bne	ra,sp,800001d8 <fail>
    80000182:	0205                	addi	tp,tp,1
    80000184:	4289                	li	t0,2
    80000186:	fe5219e3          	bne	tp,t0,80000178 <test_18+0x4>

000000008000018a <test_19>:
    8000018a:	41cd                	li	gp,19
    8000018c:	4201                	li	tp,0
    8000018e:	4081                	li	ra,0
    80000190:	0001                	nop
    80000192:	4101                	li	sp,0
    80000194:	0001                	nop
    80000196:	04209163          	bne	ra,sp,800001d8 <fail>
    8000019a:	0205                	addi	tp,tp,1
    8000019c:	4289                	li	t0,2
    8000019e:	fe5218e3          	bne	tp,t0,8000018e <test_19+0x4>

00000000800001a2 <test_20>:
    800001a2:	41d1                	li	gp,20
    800001a4:	4201                	li	tp,0
    800001a6:	4081                	li	ra,0
    800001a8:	0001                	nop
    800001aa:	0001                	nop
    800001ac:	4101                	li	sp,0
    800001ae:	02209563          	bne	ra,sp,800001d8 <fail>
    800001b2:	0205                	addi	tp,tp,1
    800001b4:	4289                	li	t0,2
    800001b6:	fe5218e3          	bne	tp,t0,800001a6 <test_20+0x4>

00000000800001ba <test_21>:
    800001ba:	4085                	li	ra,1
    800001bc:	00009663          	bnez	ra,800001c8 <test_21+0xe>
    800001c0:	0085                	addi	ra,ra,1
    800001c2:	0085                	addi	ra,ra,1
    800001c4:	0085                	addi	ra,ra,1
    800001c6:	0085                	addi	ra,ra,1
    800001c8:	0085                	addi	ra,ra,1
    800001ca:	0085                	addi	ra,ra,1
    800001cc:	438d                	li	t2,3
    800001ce:	41d5                	li	gp,21
    800001d0:	00709463          	bne	ra,t2,800001d8 <fail>
    800001d4:	00301563          	bne	zero,gp,800001de <pass>

00000000800001d8 <fail>:
    800001d8:	4505                	li	a0,1
    800001da:	0280006f          	j	80000202 <halt>

00000000800001de <pass>:
    800001de:	4501                	li	a0,0
    800001e0:	0220006f          	j	80000202 <halt>
	...

0000000080000202 <halt>:
    80000202:	852a                	mv	a0,a0
    80000204:	0000006b          	0x6b
    80000208:	a001                	j	80000208 <halt+0x6>
