
/home/mandelbrot/ics2020/am-kernels/tests/cpu-tests/build/dma-riscv64-nemu.elf：     文件格式 elf64-littleriscv


Disassembly of section .text:

0000000080000000 <_start>:
    80000000:	00000413          	li	s0,0
    80000004:	00281117          	auipc	sp,0x281
    80000008:	ffc10113          	addi	sp,sp,-4 # 80281000 <_end>
    8000000c:	08a000ef          	jal	ra,80000096 <_trm_init>

0000000080000010 <check>:
    80000010:	c111                	beqz	a0,80000014 <check+0x4>
    80000012:	8082                	ret
    80000014:	1141                	addi	sp,sp,-16
    80000016:	4505                	li	a0,1
    80000018:	e406                	sd	ra,8(sp)
    8000001a:	074000ef          	jal	ra,8000008e <halt>

000000008000001e <main>:
    8000001e:	1101                	addi	sp,sp,-32
    80000020:	08100713          	li	a4,129
    80000024:	ec06                	sd	ra,24(sp)
    80000026:	e822                	sd	s0,16(sp)
    80000028:	e426                	sd	s1,8(sp)
    8000002a:	e04a                	sd	s2,0(sp)
    8000002c:	0762                	slli	a4,a4,0x18
    8000002e:	4781                	li	a5,0
    80000030:	46c1                	li	a3,16
    80000032:	e31c                	sd	a5,0(a4)
    80000034:	0785                	addi	a5,a5,1
    80000036:	0721                	addi	a4,a4,8
    80000038:	fed79de3          	bne	a5,a3,80000032 <main+0x14>
    8000003c:	08100693          	li	a3,129
    80000040:	50000737          	lui	a4,0x50000
    80000044:	06e2                	slli	a3,a3,0x18
    80000046:	e314                	sd	a3,0(a4)
    80000048:	008116b7          	lui	a3,0x811
    8000004c:	06a2                	slli	a3,a3,0x8
    8000004e:	e714                	sd	a3,8(a4)
    80000050:	eb1c                	sd	a5,16(a4)
    80000052:	4785                	li	a5,1
    80000054:	ef1c                	sd	a5,24(a4)
    80000056:	500006b7          	lui	a3,0x50000
    8000005a:	4705                	li	a4,1
    8000005c:	6e9c                	ld	a5,24(a3)
    8000005e:	fee79fe3          	bne	a5,a4,8000005c <main+0x3e>
    80000062:	008114b7          	lui	s1,0x811
    80000066:	04a2                	slli	s1,s1,0x8
    80000068:	4401                	li	s0,0
    8000006a:	4941                	li	s2,16
    8000006c:	6088                	ld	a0,0(s1)
    8000006e:	04a1                	addi	s1,s1,8
    80000070:	8d01                	sub	a0,a0,s0
    80000072:	00153513          	seqz	a0,a0
    80000076:	0405                	addi	s0,s0,1
    80000078:	f99ff0ef          	jal	ra,80000010 <check>
    8000007c:	ff2418e3          	bne	s0,s2,8000006c <main+0x4e>
    80000080:	60e2                	ld	ra,24(sp)
    80000082:	6442                	ld	s0,16(sp)
    80000084:	64a2                	ld	s1,8(sp)
    80000086:	6902                	ld	s2,0(sp)
    80000088:	4501                	li	a0,0
    8000008a:	6105                	addi	sp,sp,32
    8000008c:	8082                	ret

000000008000008e <halt>:
    8000008e:	852a                	mv	a0,a0
    80000090:	0000006b          	0x6b
    80000094:	a001                	j	80000094 <halt+0x6>

0000000080000096 <_trm_init>:
    80000096:	1141                	addi	sp,sp,-16
    80000098:	00000517          	auipc	a0,0x0
    8000009c:	01850513          	addi	a0,a0,24 # 800000b0 <mainargs>
    800000a0:	e406                	sd	ra,8(sp)
    800000a2:	f7dff0ef          	jal	ra,8000001e <main>
    800000a6:	852a                	mv	a0,a0
    800000a8:	0000006b          	0x6b
    800000ac:	a001                	j	800000ac <_trm_init+0x16>
