
/home/mandelbrot/ics2020/am-kernels/tests/riscv-tests/build/lb-riscv64-nemu.elf：     文件格式 elf64-littleriscv


Disassembly of section .text:

0000000080000000 <_start>:
    80000000:	00000097          	auipc	ra,0x0
    80000004:	21008093          	addi	ra,ra,528 # 80000210 <begin_signature>
    80000008:	00008703          	lb	a4,0(ra)
    8000000c:	53fd                	li	t2,-1
    8000000e:	4189                	li	gp,2
    80000010:	1a771a63          	bne	a4,t2,800001c4 <fail>

0000000080000014 <test_3>:
    80000014:	00000097          	auipc	ra,0x0
    80000018:	1fc08093          	addi	ra,ra,508 # 80000210 <begin_signature>
    8000001c:	00108703          	lb	a4,1(ra)
    80000020:	4381                	li	t2,0
    80000022:	418d                	li	gp,3
    80000024:	1a771063          	bne	a4,t2,800001c4 <fail>

0000000080000028 <test_4>:
    80000028:	00000097          	auipc	ra,0x0
    8000002c:	1e808093          	addi	ra,ra,488 # 80000210 <begin_signature>
    80000030:	00208703          	lb	a4,2(ra)
    80000034:	53c1                	li	t2,-16
    80000036:	4191                	li	gp,4
    80000038:	18771663          	bne	a4,t2,800001c4 <fail>

000000008000003c <test_5>:
    8000003c:	00000097          	auipc	ra,0x0
    80000040:	1d408093          	addi	ra,ra,468 # 80000210 <begin_signature>
    80000044:	00308703          	lb	a4,3(ra)
    80000048:	43bd                	li	t2,15
    8000004a:	4195                	li	gp,5
    8000004c:	16771c63          	bne	a4,t2,800001c4 <fail>

0000000080000050 <test_6>:
    80000050:	00000097          	auipc	ra,0x0
    80000054:	1c308093          	addi	ra,ra,451 # 80000213 <tdat4>
    80000058:	ffd08703          	lb	a4,-3(ra)
    8000005c:	53fd                	li	t2,-1
    8000005e:	4199                	li	gp,6
    80000060:	16771263          	bne	a4,t2,800001c4 <fail>

0000000080000064 <test_7>:
    80000064:	00000097          	auipc	ra,0x0
    80000068:	1af08093          	addi	ra,ra,431 # 80000213 <tdat4>
    8000006c:	ffe08703          	lb	a4,-2(ra)
    80000070:	4381                	li	t2,0
    80000072:	419d                	li	gp,7
    80000074:	14771863          	bne	a4,t2,800001c4 <fail>

0000000080000078 <test_8>:
    80000078:	00000097          	auipc	ra,0x0
    8000007c:	19b08093          	addi	ra,ra,411 # 80000213 <tdat4>
    80000080:	fff08703          	lb	a4,-1(ra)
    80000084:	53c1                	li	t2,-16
    80000086:	41a1                	li	gp,8
    80000088:	12771e63          	bne	a4,t2,800001c4 <fail>

000000008000008c <test_9>:
    8000008c:	00000097          	auipc	ra,0x0
    80000090:	18708093          	addi	ra,ra,391 # 80000213 <tdat4>
    80000094:	00008703          	lb	a4,0(ra)
    80000098:	43bd                	li	t2,15
    8000009a:	41a5                	li	gp,9
    8000009c:	12771463          	bne	a4,t2,800001c4 <fail>

00000000800000a0 <test_10>:
    800000a0:	00000097          	auipc	ra,0x0
    800000a4:	17008093          	addi	ra,ra,368 # 80000210 <begin_signature>
    800000a8:	1081                	addi	ra,ra,-32
    800000aa:	02008283          	lb	t0,32(ra)
    800000ae:	53fd                	li	t2,-1
    800000b0:	41a9                	li	gp,10
    800000b2:	10729963          	bne	t0,t2,800001c4 <fail>

00000000800000b6 <test_11>:
    800000b6:	00000097          	auipc	ra,0x0
    800000ba:	15a08093          	addi	ra,ra,346 # 80000210 <begin_signature>
    800000be:	10e9                	addi	ra,ra,-6
    800000c0:	00708283          	lb	t0,7(ra)
    800000c4:	4381                	li	t2,0
    800000c6:	41ad                	li	gp,11
    800000c8:	0e729e63          	bne	t0,t2,800001c4 <fail>

00000000800000cc <test_12>:
    800000cc:	41b1                	li	gp,12
    800000ce:	4201                	li	tp,0
    800000d0:	00000097          	auipc	ra,0x0
    800000d4:	14108093          	addi	ra,ra,321 # 80000211 <tdat2>
    800000d8:	00108703          	lb	a4,1(ra)
    800000dc:	833a                	mv	t1,a4
    800000de:	53c1                	li	t2,-16
    800000e0:	0e731263          	bne	t1,t2,800001c4 <fail>
    800000e4:	0205                	addi	tp,tp,1
    800000e6:	4289                	li	t0,2
    800000e8:	fe5214e3          	bne	tp,t0,800000d0 <test_12+0x4>

00000000800000ec <test_13>:
    800000ec:	41b5                	li	gp,13
    800000ee:	4201                	li	tp,0
    800000f0:	00000097          	auipc	ra,0x0
    800000f4:	12208093          	addi	ra,ra,290 # 80000212 <tdat3>
    800000f8:	00108703          	lb	a4,1(ra)
    800000fc:	0001                	nop
    800000fe:	833a                	mv	t1,a4
    80000100:	43bd                	li	t2,15
    80000102:	0c731163          	bne	t1,t2,800001c4 <fail>
    80000106:	0205                	addi	tp,tp,1
    80000108:	4289                	li	t0,2
    8000010a:	fe5213e3          	bne	tp,t0,800000f0 <test_13+0x4>

000000008000010e <test_14>:
    8000010e:	41b9                	li	gp,14
    80000110:	4201                	li	tp,0
    80000112:	00000097          	auipc	ra,0x0
    80000116:	0fe08093          	addi	ra,ra,254 # 80000210 <begin_signature>
    8000011a:	00108703          	lb	a4,1(ra)
    8000011e:	0001                	nop
    80000120:	0001                	nop
    80000122:	833a                	mv	t1,a4
    80000124:	4381                	li	t2,0
    80000126:	08731f63          	bne	t1,t2,800001c4 <fail>
    8000012a:	0205                	addi	tp,tp,1
    8000012c:	4289                	li	t0,2
    8000012e:	fe5212e3          	bne	tp,t0,80000112 <test_14+0x4>

0000000080000132 <test_15>:
    80000132:	41bd                	li	gp,15
    80000134:	4201                	li	tp,0
    80000136:	00000097          	auipc	ra,0x0
    8000013a:	0db08093          	addi	ra,ra,219 # 80000211 <tdat2>
    8000013e:	00108703          	lb	a4,1(ra)
    80000142:	53c1                	li	t2,-16
    80000144:	08771063          	bne	a4,t2,800001c4 <fail>
    80000148:	0205                	addi	tp,tp,1
    8000014a:	4289                	li	t0,2
    8000014c:	fe5215e3          	bne	tp,t0,80000136 <test_15+0x4>

0000000080000150 <test_16>:
    80000150:	41c1                	li	gp,16
    80000152:	4201                	li	tp,0
    80000154:	00000097          	auipc	ra,0x0
    80000158:	0be08093          	addi	ra,ra,190 # 80000212 <tdat3>
    8000015c:	0001                	nop
    8000015e:	00108703          	lb	a4,1(ra)
    80000162:	43bd                	li	t2,15
    80000164:	06771063          	bne	a4,t2,800001c4 <fail>
    80000168:	0205                	addi	tp,tp,1
    8000016a:	4289                	li	t0,2
    8000016c:	fe5214e3          	bne	tp,t0,80000154 <test_16+0x4>

0000000080000170 <test_17>:
    80000170:	41c5                	li	gp,17
    80000172:	4201                	li	tp,0
    80000174:	00000097          	auipc	ra,0x0
    80000178:	09c08093          	addi	ra,ra,156 # 80000210 <begin_signature>
    8000017c:	0001                	nop
    8000017e:	0001                	nop
    80000180:	00108703          	lb	a4,1(ra)
    80000184:	4381                	li	t2,0
    80000186:	02771f63          	bne	a4,t2,800001c4 <fail>
    8000018a:	0205                	addi	tp,tp,1
    8000018c:	4289                	li	t0,2
    8000018e:	fe5213e3          	bne	tp,t0,80000174 <test_17+0x4>

0000000080000192 <test_18>:
    80000192:	00000297          	auipc	t0,0x0
    80000196:	07e28293          	addi	t0,t0,126 # 80000210 <begin_signature>
    8000019a:	00028103          	lb	sp,0(t0)
    8000019e:	4109                	li	sp,2
    800001a0:	4389                	li	t2,2
    800001a2:	41c9                	li	gp,18
    800001a4:	02711063          	bne	sp,t2,800001c4 <fail>

00000000800001a8 <test_19>:
    800001a8:	00000297          	auipc	t0,0x0
    800001ac:	06828293          	addi	t0,t0,104 # 80000210 <begin_signature>
    800001b0:	00028103          	lb	sp,0(t0)
    800001b4:	0001                	nop
    800001b6:	4109                	li	sp,2
    800001b8:	4389                	li	t2,2
    800001ba:	41cd                	li	gp,19
    800001bc:	00711463          	bne	sp,t2,800001c4 <fail>
    800001c0:	00301563          	bne	zero,gp,800001ca <pass>

00000000800001c4 <fail>:
    800001c4:	4505                	li	a0,1
    800001c6:	03c0006f          	j	80000202 <halt>

00000000800001ca <pass>:
    800001ca:	4501                	li	a0,0
    800001cc:	0360006f          	j	80000202 <halt>
	...

0000000080000202 <halt>:
    80000202:	852a                	mv	a0,a0
    80000204:	0000006b          	0x6b
    80000208:	a001                	j	80000208 <halt+0x6>
