
/home/mandelbrot/ics2020/am-kernels/tests/riscv-tests/build/lh-riscv64-nemu.elf：     文件格式 elf64-littleriscv


Disassembly of section .text:

0000000080000000 <_start>:
    80000000:	00000097          	auipc	ra,0x0
    80000004:	21008093          	addi	ra,ra,528 # 80000210 <begin_signature>
    80000008:	00009703          	lh	a4,0(ra)
    8000000c:	0ff00393          	li	t2,255
    80000010:	4189                	li	gp,2
    80000012:	1c771963          	bne	a4,t2,800001e4 <fail>

0000000080000016 <test_3>:
    80000016:	00000097          	auipc	ra,0x0
    8000001a:	1fa08093          	addi	ra,ra,506 # 80000210 <begin_signature>
    8000001e:	00209703          	lh	a4,2(ra)
    80000022:	f0000393          	li	t2,-256
    80000026:	418d                	li	gp,3
    80000028:	1a771e63          	bne	a4,t2,800001e4 <fail>

000000008000002c <test_4>:
    8000002c:	00000097          	auipc	ra,0x0
    80000030:	1e408093          	addi	ra,ra,484 # 80000210 <begin_signature>
    80000034:	00409703          	lh	a4,4(ra)
    80000038:	6385                	lui	t2,0x1
    8000003a:	33c1                	addiw	t2,t2,-16
    8000003c:	4191                	li	gp,4
    8000003e:	1a771363          	bne	a4,t2,800001e4 <fail>

0000000080000042 <test_5>:
    80000042:	00000097          	auipc	ra,0x0
    80000046:	1ce08093          	addi	ra,ra,462 # 80000210 <begin_signature>
    8000004a:	00609703          	lh	a4,6(ra)
    8000004e:	73fd                	lui	t2,0xfffff
    80000050:	23bd                	addiw	t2,t2,15
    80000052:	4195                	li	gp,5
    80000054:	18771863          	bne	a4,t2,800001e4 <fail>

0000000080000058 <test_6>:
    80000058:	00000097          	auipc	ra,0x0
    8000005c:	1be08093          	addi	ra,ra,446 # 80000216 <tdat4>
    80000060:	ffa09703          	lh	a4,-6(ra)
    80000064:	0ff00393          	li	t2,255
    80000068:	4199                	li	gp,6
    8000006a:	16771d63          	bne	a4,t2,800001e4 <fail>

000000008000006e <test_7>:
    8000006e:	00000097          	auipc	ra,0x0
    80000072:	1a808093          	addi	ra,ra,424 # 80000216 <tdat4>
    80000076:	ffc09703          	lh	a4,-4(ra)
    8000007a:	f0000393          	li	t2,-256
    8000007e:	419d                	li	gp,7
    80000080:	16771263          	bne	a4,t2,800001e4 <fail>

0000000080000084 <test_8>:
    80000084:	00000097          	auipc	ra,0x0
    80000088:	19208093          	addi	ra,ra,402 # 80000216 <tdat4>
    8000008c:	ffe09703          	lh	a4,-2(ra)
    80000090:	6385                	lui	t2,0x1
    80000092:	33c1                	addiw	t2,t2,-16
    80000094:	41a1                	li	gp,8
    80000096:	14771763          	bne	a4,t2,800001e4 <fail>

000000008000009a <test_9>:
    8000009a:	00000097          	auipc	ra,0x0
    8000009e:	17c08093          	addi	ra,ra,380 # 80000216 <tdat4>
    800000a2:	00009703          	lh	a4,0(ra)
    800000a6:	73fd                	lui	t2,0xfffff
    800000a8:	23bd                	addiw	t2,t2,15
    800000aa:	41a5                	li	gp,9
    800000ac:	12771c63          	bne	a4,t2,800001e4 <fail>

00000000800000b0 <test_10>:
    800000b0:	00000097          	auipc	ra,0x0
    800000b4:	16008093          	addi	ra,ra,352 # 80000210 <begin_signature>
    800000b8:	1081                	addi	ra,ra,-32
    800000ba:	02009283          	lh	t0,32(ra)
    800000be:	0ff00393          	li	t2,255
    800000c2:	41a9                	li	gp,10
    800000c4:	12729063          	bne	t0,t2,800001e4 <fail>

00000000800000c8 <test_11>:
    800000c8:	00000097          	auipc	ra,0x0
    800000cc:	14808093          	addi	ra,ra,328 # 80000210 <begin_signature>
    800000d0:	10ed                	addi	ra,ra,-5
    800000d2:	00709283          	lh	t0,7(ra)
    800000d6:	f0000393          	li	t2,-256
    800000da:	41ad                	li	gp,11
    800000dc:	10729463          	bne	t0,t2,800001e4 <fail>

00000000800000e0 <test_12>:
    800000e0:	41b1                	li	gp,12
    800000e2:	4201                	li	tp,0
    800000e4:	00000097          	auipc	ra,0x0
    800000e8:	12e08093          	addi	ra,ra,302 # 80000212 <tdat2>
    800000ec:	00209703          	lh	a4,2(ra)
    800000f0:	833a                	mv	t1,a4
    800000f2:	6385                	lui	t2,0x1
    800000f4:	33c1                	addiw	t2,t2,-16
    800000f6:	0e731763          	bne	t1,t2,800001e4 <fail>
    800000fa:	0205                	addi	tp,tp,1
    800000fc:	4289                	li	t0,2
    800000fe:	fe5213e3          	bne	tp,t0,800000e4 <test_12+0x4>

0000000080000102 <test_13>:
    80000102:	41b5                	li	gp,13
    80000104:	4201                	li	tp,0
    80000106:	00000097          	auipc	ra,0x0
    8000010a:	10e08093          	addi	ra,ra,270 # 80000214 <tdat3>
    8000010e:	00209703          	lh	a4,2(ra)
    80000112:	0001                	nop
    80000114:	833a                	mv	t1,a4
    80000116:	73fd                	lui	t2,0xfffff
    80000118:	23bd                	addiw	t2,t2,15
    8000011a:	0c731563          	bne	t1,t2,800001e4 <fail>
    8000011e:	0205                	addi	tp,tp,1
    80000120:	4289                	li	t0,2
    80000122:	fe5212e3          	bne	tp,t0,80000106 <test_13+0x4>

0000000080000126 <test_14>:
    80000126:	41b9                	li	gp,14
    80000128:	4201                	li	tp,0
    8000012a:	00000097          	auipc	ra,0x0
    8000012e:	0e608093          	addi	ra,ra,230 # 80000210 <begin_signature>
    80000132:	00209703          	lh	a4,2(ra)
    80000136:	0001                	nop
    80000138:	0001                	nop
    8000013a:	833a                	mv	t1,a4
    8000013c:	f0000393          	li	t2,-256
    80000140:	0a731263          	bne	t1,t2,800001e4 <fail>
    80000144:	0205                	addi	tp,tp,1
    80000146:	4289                	li	t0,2
    80000148:	fe5211e3          	bne	tp,t0,8000012a <test_14+0x4>

000000008000014c <test_15>:
    8000014c:	41bd                	li	gp,15
    8000014e:	4201                	li	tp,0
    80000150:	00000097          	auipc	ra,0x0
    80000154:	0c208093          	addi	ra,ra,194 # 80000212 <tdat2>
    80000158:	00209703          	lh	a4,2(ra)
    8000015c:	6385                	lui	t2,0x1
    8000015e:	33c1                	addiw	t2,t2,-16
    80000160:	08771263          	bne	a4,t2,800001e4 <fail>
    80000164:	0205                	addi	tp,tp,1
    80000166:	4289                	li	t0,2
    80000168:	fe5214e3          	bne	tp,t0,80000150 <test_15+0x4>

000000008000016c <test_16>:
    8000016c:	41c1                	li	gp,16
    8000016e:	4201                	li	tp,0
    80000170:	00000097          	auipc	ra,0x0
    80000174:	0a408093          	addi	ra,ra,164 # 80000214 <tdat3>
    80000178:	0001                	nop
    8000017a:	00209703          	lh	a4,2(ra)
    8000017e:	73fd                	lui	t2,0xfffff
    80000180:	23bd                	addiw	t2,t2,15
    80000182:	06771163          	bne	a4,t2,800001e4 <fail>
    80000186:	0205                	addi	tp,tp,1
    80000188:	4289                	li	t0,2
    8000018a:	fe5213e3          	bne	tp,t0,80000170 <test_16+0x4>

000000008000018e <test_17>:
    8000018e:	41c5                	li	gp,17
    80000190:	4201                	li	tp,0
    80000192:	00000097          	auipc	ra,0x0
    80000196:	07e08093          	addi	ra,ra,126 # 80000210 <begin_signature>
    8000019a:	0001                	nop
    8000019c:	0001                	nop
    8000019e:	00209703          	lh	a4,2(ra)
    800001a2:	f0000393          	li	t2,-256
    800001a6:	02771f63          	bne	a4,t2,800001e4 <fail>
    800001aa:	0205                	addi	tp,tp,1
    800001ac:	4289                	li	t0,2
    800001ae:	fe5212e3          	bne	tp,t0,80000192 <test_17+0x4>

00000000800001b2 <test_18>:
    800001b2:	00000297          	auipc	t0,0x0
    800001b6:	05e28293          	addi	t0,t0,94 # 80000210 <begin_signature>
    800001ba:	00029103          	lh	sp,0(t0)
    800001be:	4109                	li	sp,2
    800001c0:	4389                	li	t2,2
    800001c2:	41c9                	li	gp,18
    800001c4:	02711063          	bne	sp,t2,800001e4 <fail>

00000000800001c8 <test_19>:
    800001c8:	00000297          	auipc	t0,0x0
    800001cc:	04828293          	addi	t0,t0,72 # 80000210 <begin_signature>
    800001d0:	00029103          	lh	sp,0(t0)
    800001d4:	0001                	nop
    800001d6:	4109                	li	sp,2
    800001d8:	4389                	li	t2,2
    800001da:	41cd                	li	gp,19
    800001dc:	00711463          	bne	sp,t2,800001e4 <fail>
    800001e0:	00301563          	bne	zero,gp,800001ea <pass>

00000000800001e4 <fail>:
    800001e4:	4505                	li	a0,1
    800001e6:	01c0006f          	j	80000202 <halt>

00000000800001ea <pass>:
    800001ea:	4501                	li	a0,0
    800001ec:	0160006f          	j	80000202 <halt>
	...

0000000080000202 <halt>:
    80000202:	852a                	mv	a0,a0
    80000204:	0000006b          	0x6b
    80000208:	a001                	j	80000208 <halt+0x6>
