
/home/mandelbrot/ics2020/am-kernels/tests/riscv-tests/build/lhu-riscv64-nemu.elf：     文件格式 elf64-littleriscv


Disassembly of section .text:

0000000080000000 <_start>:
    80000000:	00000097          	auipc	ra,0x0
    80000004:	21008093          	addi	ra,ra,528 # 80000210 <begin_signature>
    80000008:	0000d703          	lhu	a4,0(ra)
    8000000c:	0ff00393          	li	t2,255
    80000010:	4189                	li	gp,2
    80000012:	1c771e63          	bne	a4,t2,800001ee <fail>

0000000080000016 <test_3>:
    80000016:	00000097          	auipc	ra,0x0
    8000001a:	1fa08093          	addi	ra,ra,506 # 80000210 <begin_signature>
    8000001e:	0020d703          	lhu	a4,2(ra)
    80000022:	63c1                	lui	t2,0x10
    80000024:	f003839b          	addiw	t2,t2,-256
    80000028:	418d                	li	gp,3
    8000002a:	1c771263          	bne	a4,t2,800001ee <fail>

000000008000002e <test_4>:
    8000002e:	00000097          	auipc	ra,0x0
    80000032:	1e208093          	addi	ra,ra,482 # 80000210 <begin_signature>
    80000036:	0040d703          	lhu	a4,4(ra)
    8000003a:	6385                	lui	t2,0x1
    8000003c:	33c1                	addiw	t2,t2,-16
    8000003e:	4191                	li	gp,4
    80000040:	1a771763          	bne	a4,t2,800001ee <fail>

0000000080000044 <test_5>:
    80000044:	00000097          	auipc	ra,0x0
    80000048:	1cc08093          	addi	ra,ra,460 # 80000210 <begin_signature>
    8000004c:	0060d703          	lhu	a4,6(ra)
    80000050:	63bd                	lui	t2,0xf
    80000052:	23bd                	addiw	t2,t2,15
    80000054:	4195                	li	gp,5
    80000056:	18771c63          	bne	a4,t2,800001ee <fail>

000000008000005a <test_6>:
    8000005a:	00000097          	auipc	ra,0x0
    8000005e:	1bc08093          	addi	ra,ra,444 # 80000216 <tdat4>
    80000062:	ffa0d703          	lhu	a4,-6(ra)
    80000066:	0ff00393          	li	t2,255
    8000006a:	4199                	li	gp,6
    8000006c:	18771163          	bne	a4,t2,800001ee <fail>

0000000080000070 <test_7>:
    80000070:	00000097          	auipc	ra,0x0
    80000074:	1a608093          	addi	ra,ra,422 # 80000216 <tdat4>
    80000078:	ffc0d703          	lhu	a4,-4(ra)
    8000007c:	63c1                	lui	t2,0x10
    8000007e:	f003839b          	addiw	t2,t2,-256
    80000082:	419d                	li	gp,7
    80000084:	16771563          	bne	a4,t2,800001ee <fail>

0000000080000088 <test_8>:
    80000088:	00000097          	auipc	ra,0x0
    8000008c:	18e08093          	addi	ra,ra,398 # 80000216 <tdat4>
    80000090:	ffe0d703          	lhu	a4,-2(ra)
    80000094:	6385                	lui	t2,0x1
    80000096:	33c1                	addiw	t2,t2,-16
    80000098:	41a1                	li	gp,8
    8000009a:	14771a63          	bne	a4,t2,800001ee <fail>

000000008000009e <test_9>:
    8000009e:	00000097          	auipc	ra,0x0
    800000a2:	17808093          	addi	ra,ra,376 # 80000216 <tdat4>
    800000a6:	0000d703          	lhu	a4,0(ra)
    800000aa:	63bd                	lui	t2,0xf
    800000ac:	23bd                	addiw	t2,t2,15
    800000ae:	41a5                	li	gp,9
    800000b0:	12771f63          	bne	a4,t2,800001ee <fail>

00000000800000b4 <test_10>:
    800000b4:	00000097          	auipc	ra,0x0
    800000b8:	15c08093          	addi	ra,ra,348 # 80000210 <begin_signature>
    800000bc:	1081                	addi	ra,ra,-32
    800000be:	0200d283          	lhu	t0,32(ra)
    800000c2:	0ff00393          	li	t2,255
    800000c6:	41a9                	li	gp,10
    800000c8:	12729363          	bne	t0,t2,800001ee <fail>

00000000800000cc <test_11>:
    800000cc:	00000097          	auipc	ra,0x0
    800000d0:	14408093          	addi	ra,ra,324 # 80000210 <begin_signature>
    800000d4:	10ed                	addi	ra,ra,-5
    800000d6:	0070d283          	lhu	t0,7(ra)
    800000da:	63c1                	lui	t2,0x10
    800000dc:	f003839b          	addiw	t2,t2,-256
    800000e0:	41ad                	li	gp,11
    800000e2:	10729663          	bne	t0,t2,800001ee <fail>

00000000800000e6 <test_12>:
    800000e6:	41b1                	li	gp,12
    800000e8:	4201                	li	tp,0
    800000ea:	00000097          	auipc	ra,0x0
    800000ee:	12808093          	addi	ra,ra,296 # 80000212 <tdat2>
    800000f2:	0020d703          	lhu	a4,2(ra)
    800000f6:	833a                	mv	t1,a4
    800000f8:	6385                	lui	t2,0x1
    800000fa:	33c1                	addiw	t2,t2,-16
    800000fc:	0e731963          	bne	t1,t2,800001ee <fail>
    80000100:	0205                	addi	tp,tp,1
    80000102:	4289                	li	t0,2
    80000104:	fe5213e3          	bne	tp,t0,800000ea <test_12+0x4>

0000000080000108 <test_13>:
    80000108:	41b5                	li	gp,13
    8000010a:	4201                	li	tp,0
    8000010c:	00000097          	auipc	ra,0x0
    80000110:	10808093          	addi	ra,ra,264 # 80000214 <tdat3>
    80000114:	0020d703          	lhu	a4,2(ra)
    80000118:	0001                	nop
    8000011a:	833a                	mv	t1,a4
    8000011c:	63bd                	lui	t2,0xf
    8000011e:	23bd                	addiw	t2,t2,15
    80000120:	0c731763          	bne	t1,t2,800001ee <fail>
    80000124:	0205                	addi	tp,tp,1
    80000126:	4289                	li	t0,2
    80000128:	fe5212e3          	bne	tp,t0,8000010c <test_13+0x4>

000000008000012c <test_14>:
    8000012c:	41b9                	li	gp,14
    8000012e:	4201                	li	tp,0
    80000130:	00000097          	auipc	ra,0x0
    80000134:	0e008093          	addi	ra,ra,224 # 80000210 <begin_signature>
    80000138:	0020d703          	lhu	a4,2(ra)
    8000013c:	0001                	nop
    8000013e:	0001                	nop
    80000140:	833a                	mv	t1,a4
    80000142:	63c1                	lui	t2,0x10
    80000144:	f003839b          	addiw	t2,t2,-256
    80000148:	0a731363          	bne	t1,t2,800001ee <fail>
    8000014c:	0205                	addi	tp,tp,1
    8000014e:	4289                	li	t0,2
    80000150:	fe5210e3          	bne	tp,t0,80000130 <test_14+0x4>

0000000080000154 <test_15>:
    80000154:	41bd                	li	gp,15
    80000156:	4201                	li	tp,0
    80000158:	00000097          	auipc	ra,0x0
    8000015c:	0ba08093          	addi	ra,ra,186 # 80000212 <tdat2>
    80000160:	0020d703          	lhu	a4,2(ra)
    80000164:	6385                	lui	t2,0x1
    80000166:	33c1                	addiw	t2,t2,-16
    80000168:	08771363          	bne	a4,t2,800001ee <fail>
    8000016c:	0205                	addi	tp,tp,1
    8000016e:	4289                	li	t0,2
    80000170:	fe5214e3          	bne	tp,t0,80000158 <test_15+0x4>

0000000080000174 <test_16>:
    80000174:	41c1                	li	gp,16
    80000176:	4201                	li	tp,0
    80000178:	00000097          	auipc	ra,0x0
    8000017c:	09c08093          	addi	ra,ra,156 # 80000214 <tdat3>
    80000180:	0001                	nop
    80000182:	0020d703          	lhu	a4,2(ra)
    80000186:	63bd                	lui	t2,0xf
    80000188:	23bd                	addiw	t2,t2,15
    8000018a:	06771263          	bne	a4,t2,800001ee <fail>
    8000018e:	0205                	addi	tp,tp,1
    80000190:	4289                	li	t0,2
    80000192:	fe5213e3          	bne	tp,t0,80000178 <test_16+0x4>

0000000080000196 <test_17>:
    80000196:	41c5                	li	gp,17
    80000198:	4201                	li	tp,0
    8000019a:	00000097          	auipc	ra,0x0
    8000019e:	07608093          	addi	ra,ra,118 # 80000210 <begin_signature>
    800001a2:	0001                	nop
    800001a4:	0001                	nop
    800001a6:	0020d703          	lhu	a4,2(ra)
    800001aa:	63c1                	lui	t2,0x10
    800001ac:	f003839b          	addiw	t2,t2,-256
    800001b0:	02771f63          	bne	a4,t2,800001ee <fail>
    800001b4:	0205                	addi	tp,tp,1
    800001b6:	4289                	li	t0,2
    800001b8:	fe5211e3          	bne	tp,t0,8000019a <test_17+0x4>

00000000800001bc <test_18>:
    800001bc:	00000297          	auipc	t0,0x0
    800001c0:	05428293          	addi	t0,t0,84 # 80000210 <begin_signature>
    800001c4:	0002d103          	lhu	sp,0(t0)
    800001c8:	4109                	li	sp,2
    800001ca:	4389                	li	t2,2
    800001cc:	41c9                	li	gp,18
    800001ce:	02711063          	bne	sp,t2,800001ee <fail>

00000000800001d2 <test_19>:
    800001d2:	00000297          	auipc	t0,0x0
    800001d6:	03e28293          	addi	t0,t0,62 # 80000210 <begin_signature>
    800001da:	0002d103          	lhu	sp,0(t0)
    800001de:	0001                	nop
    800001e0:	4109                	li	sp,2
    800001e2:	4389                	li	t2,2
    800001e4:	41cd                	li	gp,19
    800001e6:	00711463          	bne	sp,t2,800001ee <fail>
    800001ea:	00301563          	bne	zero,gp,800001f4 <pass>

00000000800001ee <fail>:
    800001ee:	4505                	li	a0,1
    800001f0:	0120006f          	j	80000202 <halt>

00000000800001f4 <pass>:
    800001f4:	4501                	li	a0,0
    800001f6:	00c0006f          	j	80000202 <halt>
	...

0000000080000202 <halt>:
    80000202:	852a                	mv	a0,a0
    80000204:	0000006b          	0x6b
    80000208:	a001                	j	80000208 <halt+0x6>
