
/home/mandelbrot/ics2020/am-kernels/tests/riscv-tests/build/lw-riscv64-nemu.elf：     文件格式 elf64-littleriscv


Disassembly of section .text:

0000000080000000 <_start>:
    80000000:	00000097          	auipc	ra,0x0
    80000004:	25008093          	addi	ra,ra,592 # 80000250 <begin_signature>
    80000008:	0000a703          	lw	a4,0(ra)
    8000000c:	00ff03b7          	lui	t2,0xff0
    80000010:	0ff3839b          	addiw	t2,t2,255
    80000014:	4189                	li	gp,2
    80000016:	1e771f63          	bne	a4,t2,80000214 <fail>

000000008000001a <test_3>:
    8000001a:	00000097          	auipc	ra,0x0
    8000001e:	23608093          	addi	ra,ra,566 # 80000250 <begin_signature>
    80000022:	0040a703          	lw	a4,4(ra)
    80000026:	ff0103b7          	lui	t2,0xff010
    8000002a:	f003839b          	addiw	t2,t2,-256
    8000002e:	418d                	li	gp,3
    80000030:	1e771263          	bne	a4,t2,80000214 <fail>

0000000080000034 <test_4>:
    80000034:	00000097          	auipc	ra,0x0
    80000038:	21c08093          	addi	ra,ra,540 # 80000250 <begin_signature>
    8000003c:	0080a703          	lw	a4,8(ra)
    80000040:	0ff013b7          	lui	t2,0xff01
    80000044:	33c1                	addiw	t2,t2,-16
    80000046:	4191                	li	gp,4
    80000048:	1c771663          	bne	a4,t2,80000214 <fail>

000000008000004c <test_5>:
    8000004c:	00000097          	auipc	ra,0x0
    80000050:	20408093          	addi	ra,ra,516 # 80000250 <begin_signature>
    80000054:	00c0a703          	lw	a4,12(ra)
    80000058:	f00ff3b7          	lui	t2,0xf00ff
    8000005c:	23bd                	addiw	t2,t2,15
    8000005e:	4195                	li	gp,5
    80000060:	1a771a63          	bne	a4,t2,80000214 <fail>

0000000080000064 <test_6>:
    80000064:	00000097          	auipc	ra,0x0
    80000068:	1f808093          	addi	ra,ra,504 # 8000025c <tdat4>
    8000006c:	ff40a703          	lw	a4,-12(ra)
    80000070:	00ff03b7          	lui	t2,0xff0
    80000074:	0ff3839b          	addiw	t2,t2,255
    80000078:	4199                	li	gp,6
    8000007a:	18771d63          	bne	a4,t2,80000214 <fail>

000000008000007e <test_7>:
    8000007e:	00000097          	auipc	ra,0x0
    80000082:	1de08093          	addi	ra,ra,478 # 8000025c <tdat4>
    80000086:	ff80a703          	lw	a4,-8(ra)
    8000008a:	ff0103b7          	lui	t2,0xff010
    8000008e:	f003839b          	addiw	t2,t2,-256
    80000092:	419d                	li	gp,7
    80000094:	18771063          	bne	a4,t2,80000214 <fail>

0000000080000098 <test_8>:
    80000098:	00000097          	auipc	ra,0x0
    8000009c:	1c408093          	addi	ra,ra,452 # 8000025c <tdat4>
    800000a0:	ffc0a703          	lw	a4,-4(ra)
    800000a4:	0ff013b7          	lui	t2,0xff01
    800000a8:	33c1                	addiw	t2,t2,-16
    800000aa:	41a1                	li	gp,8
    800000ac:	16771463          	bne	a4,t2,80000214 <fail>

00000000800000b0 <test_9>:
    800000b0:	00000097          	auipc	ra,0x0
    800000b4:	1ac08093          	addi	ra,ra,428 # 8000025c <tdat4>
    800000b8:	0000a703          	lw	a4,0(ra)
    800000bc:	f00ff3b7          	lui	t2,0xf00ff
    800000c0:	23bd                	addiw	t2,t2,15
    800000c2:	41a5                	li	gp,9
    800000c4:	14771863          	bne	a4,t2,80000214 <fail>

00000000800000c8 <test_10>:
    800000c8:	00000097          	auipc	ra,0x0
    800000cc:	18808093          	addi	ra,ra,392 # 80000250 <begin_signature>
    800000d0:	1081                	addi	ra,ra,-32
    800000d2:	0200a283          	lw	t0,32(ra)
    800000d6:	00ff03b7          	lui	t2,0xff0
    800000da:	0ff3839b          	addiw	t2,t2,255
    800000de:	41a9                	li	gp,10
    800000e0:	12729a63          	bne	t0,t2,80000214 <fail>

00000000800000e4 <test_11>:
    800000e4:	00000097          	auipc	ra,0x0
    800000e8:	16c08093          	addi	ra,ra,364 # 80000250 <begin_signature>
    800000ec:	10f5                	addi	ra,ra,-3
    800000ee:	0070a283          	lw	t0,7(ra)
    800000f2:	ff0103b7          	lui	t2,0xff010
    800000f6:	f003839b          	addiw	t2,t2,-256
    800000fa:	41ad                	li	gp,11
    800000fc:	10729c63          	bne	t0,t2,80000214 <fail>

0000000080000100 <test_12>:
    80000100:	41b1                	li	gp,12
    80000102:	4201                	li	tp,0
    80000104:	00000097          	auipc	ra,0x0
    80000108:	15008093          	addi	ra,ra,336 # 80000254 <tdat2>
    8000010c:	0040a703          	lw	a4,4(ra)
    80000110:	833a                	mv	t1,a4
    80000112:	0ff013b7          	lui	t2,0xff01
    80000116:	33c1                	addiw	t2,t2,-16
    80000118:	0e731e63          	bne	t1,t2,80000214 <fail>
    8000011c:	0205                	addi	tp,tp,1
    8000011e:	4289                	li	t0,2
    80000120:	fe5212e3          	bne	tp,t0,80000104 <test_12+0x4>

0000000080000124 <test_13>:
    80000124:	41b5                	li	gp,13
    80000126:	4201                	li	tp,0
    80000128:	00000097          	auipc	ra,0x0
    8000012c:	13008093          	addi	ra,ra,304 # 80000258 <tdat3>
    80000130:	0040a703          	lw	a4,4(ra)
    80000134:	0001                	nop
    80000136:	833a                	mv	t1,a4
    80000138:	f00ff3b7          	lui	t2,0xf00ff
    8000013c:	23bd                	addiw	t2,t2,15
    8000013e:	0c731b63          	bne	t1,t2,80000214 <fail>
    80000142:	0205                	addi	tp,tp,1
    80000144:	4289                	li	t0,2
    80000146:	fe5211e3          	bne	tp,t0,80000128 <test_13+0x4>

000000008000014a <test_14>:
    8000014a:	41b9                	li	gp,14
    8000014c:	4201                	li	tp,0
    8000014e:	00000097          	auipc	ra,0x0
    80000152:	10208093          	addi	ra,ra,258 # 80000250 <begin_signature>
    80000156:	0040a703          	lw	a4,4(ra)
    8000015a:	0001                	nop
    8000015c:	0001                	nop
    8000015e:	833a                	mv	t1,a4
    80000160:	ff0103b7          	lui	t2,0xff010
    80000164:	f003839b          	addiw	t2,t2,-256
    80000168:	0a731663          	bne	t1,t2,80000214 <fail>
    8000016c:	0205                	addi	tp,tp,1
    8000016e:	4289                	li	t0,2
    80000170:	fc521fe3          	bne	tp,t0,8000014e <test_14+0x4>

0000000080000174 <test_15>:
    80000174:	41bd                	li	gp,15
    80000176:	4201                	li	tp,0
    80000178:	00000097          	auipc	ra,0x0
    8000017c:	0dc08093          	addi	ra,ra,220 # 80000254 <tdat2>
    80000180:	0040a703          	lw	a4,4(ra)
    80000184:	0ff013b7          	lui	t2,0xff01
    80000188:	33c1                	addiw	t2,t2,-16
    8000018a:	08771563          	bne	a4,t2,80000214 <fail>
    8000018e:	0205                	addi	tp,tp,1
    80000190:	4289                	li	t0,2
    80000192:	fe5213e3          	bne	tp,t0,80000178 <test_15+0x4>

0000000080000196 <test_16>:
    80000196:	41c1                	li	gp,16
    80000198:	4201                	li	tp,0
    8000019a:	00000097          	auipc	ra,0x0
    8000019e:	0be08093          	addi	ra,ra,190 # 80000258 <tdat3>
    800001a2:	0001                	nop
    800001a4:	0040a703          	lw	a4,4(ra)
    800001a8:	f00ff3b7          	lui	t2,0xf00ff
    800001ac:	23bd                	addiw	t2,t2,15
    800001ae:	06771363          	bne	a4,t2,80000214 <fail>
    800001b2:	0205                	addi	tp,tp,1
    800001b4:	4289                	li	t0,2
    800001b6:	fe5212e3          	bne	tp,t0,8000019a <test_16+0x4>

00000000800001ba <test_17>:
    800001ba:	41c5                	li	gp,17
    800001bc:	4201                	li	tp,0
    800001be:	00000097          	auipc	ra,0x0
    800001c2:	09208093          	addi	ra,ra,146 # 80000250 <begin_signature>
    800001c6:	0001                	nop
    800001c8:	0001                	nop
    800001ca:	0040a703          	lw	a4,4(ra)
    800001ce:	ff0103b7          	lui	t2,0xff010
    800001d2:	f003839b          	addiw	t2,t2,-256
    800001d6:	02771f63          	bne	a4,t2,80000214 <fail>
    800001da:	0205                	addi	tp,tp,1
    800001dc:	4289                	li	t0,2
    800001de:	fe5210e3          	bne	tp,t0,800001be <test_17+0x4>

00000000800001e2 <test_18>:
    800001e2:	00000297          	auipc	t0,0x0
    800001e6:	06e28293          	addi	t0,t0,110 # 80000250 <begin_signature>
    800001ea:	0002a103          	lw	sp,0(t0)
    800001ee:	4109                	li	sp,2
    800001f0:	4389                	li	t2,2
    800001f2:	41c9                	li	gp,18
    800001f4:	02711063          	bne	sp,t2,80000214 <fail>

00000000800001f8 <test_19>:
    800001f8:	00000297          	auipc	t0,0x0
    800001fc:	05828293          	addi	t0,t0,88 # 80000250 <begin_signature>
    80000200:	0002a103          	lw	sp,0(t0)
    80000204:	0001                	nop
    80000206:	4109                	li	sp,2
    80000208:	4389                	li	t2,2
    8000020a:	41cd                	li	gp,19
    8000020c:	00711463          	bne	sp,t2,80000214 <fail>
    80000210:	00301563          	bne	zero,gp,8000021a <pass>

0000000080000214 <fail>:
    80000214:	4505                	li	a0,1
    80000216:	02c0006f          	j	80000242 <halt>

000000008000021a <pass>:
    8000021a:	4501                	li	a0,0
    8000021c:	0260006f          	j	80000242 <halt>
	...

0000000080000242 <halt>:
    80000242:	852a                	mv	a0,a0
    80000244:	0000006b          	0x6b
    80000248:	a001                	j	80000248 <halt+0x6>
