
/home/mandelbrot/ics2020/am-kernels/tests/riscv-tests/build/sllw-riscv64-nemu.elf：     文件格式 elf64-littleriscv


Disassembly of section .text:

0000000080000000 <_start>:
    80000000:	4085                	li	ra,1
    80000002:	4101                	li	sp,0
    80000004:	0020973b          	sllw	a4,ra,sp
    80000008:	4385                	li	t2,1
    8000000a:	4189                	li	gp,2
    8000000c:	48771563          	bne	a4,t2,80000496 <fail>

0000000080000010 <test_3>:
    80000010:	4085                	li	ra,1
    80000012:	4105                	li	sp,1
    80000014:	0020973b          	sllw	a4,ra,sp
    80000018:	4389                	li	t2,2
    8000001a:	418d                	li	gp,3
    8000001c:	46771d63          	bne	a4,t2,80000496 <fail>

0000000080000020 <test_4>:
    80000020:	4085                	li	ra,1
    80000022:	411d                	li	sp,7
    80000024:	0020973b          	sllw	a4,ra,sp
    80000028:	08000393          	li	t2,128
    8000002c:	4191                	li	gp,4
    8000002e:	46771463          	bne	a4,t2,80000496 <fail>

0000000080000032 <test_5>:
    80000032:	4085                	li	ra,1
    80000034:	4139                	li	sp,14
    80000036:	0020973b          	sllw	a4,ra,sp
    8000003a:	6391                	lui	t2,0x4
    8000003c:	4195                	li	gp,5
    8000003e:	44771c63          	bne	a4,t2,80000496 <fail>

0000000080000042 <test_6>:
    80000042:	4085                	li	ra,1
    80000044:	417d                	li	sp,31
    80000046:	0020973b          	sllw	a4,ra,sp
    8000004a:	800003b7          	lui	t2,0x80000
    8000004e:	4199                	li	gp,6
    80000050:	44771363          	bne	a4,t2,80000496 <fail>

0000000080000054 <test_7>:
    80000054:	50fd                	li	ra,-1
    80000056:	4101                	li	sp,0
    80000058:	0020973b          	sllw	a4,ra,sp
    8000005c:	53fd                	li	t2,-1
    8000005e:	419d                	li	gp,7
    80000060:	42771b63          	bne	a4,t2,80000496 <fail>

0000000080000064 <test_8>:
    80000064:	50fd                	li	ra,-1
    80000066:	4105                	li	sp,1
    80000068:	0020973b          	sllw	a4,ra,sp
    8000006c:	53f9                	li	t2,-2
    8000006e:	41a1                	li	gp,8
    80000070:	42771363          	bne	a4,t2,80000496 <fail>

0000000080000074 <test_9>:
    80000074:	50fd                	li	ra,-1
    80000076:	411d                	li	sp,7
    80000078:	0020973b          	sllw	a4,ra,sp
    8000007c:	f8000393          	li	t2,-128
    80000080:	41a5                	li	gp,9
    80000082:	40771a63          	bne	a4,t2,80000496 <fail>

0000000080000086 <test_10>:
    80000086:	50fd                	li	ra,-1
    80000088:	4139                	li	sp,14
    8000008a:	0020973b          	sllw	a4,ra,sp
    8000008e:	73f1                	lui	t2,0xffffc
    80000090:	41a9                	li	gp,10
    80000092:	40771263          	bne	a4,t2,80000496 <fail>

0000000080000096 <test_11>:
    80000096:	50fd                	li	ra,-1
    80000098:	417d                	li	sp,31
    8000009a:	0020973b          	sllw	a4,ra,sp
    8000009e:	800003b7          	lui	t2,0x80000
    800000a2:	41ad                	li	gp,11
    800000a4:	3e771963          	bne	a4,t2,80000496 <fail>

00000000800000a8 <test_12>:
    800000a8:	212120b7          	lui	ra,0x21212
    800000ac:	1210809b          	addiw	ra,ra,289
    800000b0:	4101                	li	sp,0
    800000b2:	0020973b          	sllw	a4,ra,sp
    800000b6:	212123b7          	lui	t2,0x21212
    800000ba:	1213839b          	addiw	t2,t2,289
    800000be:	41b1                	li	gp,12
    800000c0:	3c771b63          	bne	a4,t2,80000496 <fail>

00000000800000c4 <test_13>:
    800000c4:	212120b7          	lui	ra,0x21212
    800000c8:	1210809b          	addiw	ra,ra,289
    800000cc:	4105                	li	sp,1
    800000ce:	0020973b          	sllw	a4,ra,sp
    800000d2:	424243b7          	lui	t2,0x42424
    800000d6:	2423839b          	addiw	t2,t2,578
    800000da:	41b5                	li	gp,13
    800000dc:	3a771d63          	bne	a4,t2,80000496 <fail>

00000000800000e0 <test_14>:
    800000e0:	212120b7          	lui	ra,0x21212
    800000e4:	1210809b          	addiw	ra,ra,289
    800000e8:	411d                	li	sp,7
    800000ea:	0020973b          	sllw	a4,ra,sp
    800000ee:	909093b7          	lui	t2,0x90909
    800000f2:	0803839b          	addiw	t2,t2,128
    800000f6:	41b9                	li	gp,14
    800000f8:	38771f63          	bne	a4,t2,80000496 <fail>

00000000800000fc <test_15>:
    800000fc:	212120b7          	lui	ra,0x21212
    80000100:	1210809b          	addiw	ra,ra,289
    80000104:	4139                	li	sp,14
    80000106:	0020973b          	sllw	a4,ra,sp
    8000010a:	484843b7          	lui	t2,0x48484
    8000010e:	41bd                	li	gp,15
    80000110:	38771363          	bne	a4,t2,80000496 <fail>

0000000080000114 <test_16>:
    80000114:	212120b7          	lui	ra,0x21212
    80000118:	1210809b          	addiw	ra,ra,289
    8000011c:	417d                	li	sp,31
    8000011e:	0020973b          	sllw	a4,ra,sp
    80000122:	800003b7          	lui	t2,0x80000
    80000126:	41c1                	li	gp,16
    80000128:	36771763          	bne	a4,t2,80000496 <fail>

000000008000012c <test_17>:
    8000012c:	212120b7          	lui	ra,0x21212
    80000130:	1210809b          	addiw	ra,ra,289
    80000134:	5101                	li	sp,-32
    80000136:	0020973b          	sllw	a4,ra,sp
    8000013a:	212123b7          	lui	t2,0x21212
    8000013e:	1213839b          	addiw	t2,t2,289
    80000142:	41c5                	li	gp,17
    80000144:	34771963          	bne	a4,t2,80000496 <fail>

0000000080000148 <test_18>:
    80000148:	212120b7          	lui	ra,0x21212
    8000014c:	1210809b          	addiw	ra,ra,289
    80000150:	5105                	li	sp,-31
    80000152:	0020973b          	sllw	a4,ra,sp
    80000156:	424243b7          	lui	t2,0x42424
    8000015a:	2423839b          	addiw	t2,t2,578
    8000015e:	41c9                	li	gp,18
    80000160:	32771b63          	bne	a4,t2,80000496 <fail>

0000000080000164 <test_19>:
    80000164:	212120b7          	lui	ra,0x21212
    80000168:	1210809b          	addiw	ra,ra,289
    8000016c:	511d                	li	sp,-25
    8000016e:	0020973b          	sllw	a4,ra,sp
    80000172:	909093b7          	lui	t2,0x90909
    80000176:	0803839b          	addiw	t2,t2,128
    8000017a:	41cd                	li	gp,19
    8000017c:	30771d63          	bne	a4,t2,80000496 <fail>

0000000080000180 <test_20>:
    80000180:	212120b7          	lui	ra,0x21212
    80000184:	1210809b          	addiw	ra,ra,289
    80000188:	5139                	li	sp,-18
    8000018a:	0020973b          	sllw	a4,ra,sp
    8000018e:	484843b7          	lui	t2,0x48484
    80000192:	41d1                	li	gp,20
    80000194:	30771163          	bne	a4,t2,80000496 <fail>

0000000080000198 <test_21>:
    80000198:	212120b7          	lui	ra,0x21212
    8000019c:	1210809b          	addiw	ra,ra,289
    800001a0:	517d                	li	sp,-1
    800001a2:	0020973b          	sllw	a4,ra,sp
    800001a6:	800003b7          	lui	t2,0x80000
    800001aa:	41d5                	li	gp,21
    800001ac:	2e771563          	bne	a4,t2,80000496 <fail>

00000000800001b0 <test_44>:
    800001b0:	fff120b7          	lui	ra,0xfff12
    800001b4:	3450809b          	addiw	ra,ra,837
    800001b8:	00b2                	slli	ra,ra,0xc
    800001ba:	67808093          	addi	ra,ra,1656 # fffffffffff12678 <_end+0xffffffff7fc91678>
    800001be:	4101                	li	sp,0
    800001c0:	0020973b          	sllw	a4,ra,sp
    800001c4:	123453b7          	lui	t2,0x12345
    800001c8:	6783839b          	addiw	t2,t2,1656
    800001cc:	02c00193          	li	gp,44
    800001d0:	2c771363          	bne	a4,t2,80000496 <fail>

00000000800001d4 <test_45>:
    800001d4:	fff120b7          	lui	ra,0xfff12
    800001d8:	3450809b          	addiw	ra,ra,837
    800001dc:	00b2                	slli	ra,ra,0xc
    800001de:	67808093          	addi	ra,ra,1656 # fffffffffff12678 <_end+0xffffffff7fc91678>
    800001e2:	4111                	li	sp,4
    800001e4:	0020973b          	sllw	a4,ra,sp
    800001e8:	234563b7          	lui	t2,0x23456
    800001ec:	7803839b          	addiw	t2,t2,1920
    800001f0:	02d00193          	li	gp,45
    800001f4:	2a771163          	bne	a4,t2,80000496 <fail>

00000000800001f8 <test_46>:
    800001f8:	000920b7          	lui	ra,0x92
    800001fc:	3450809b          	addiw	ra,ra,837
    80000200:	00b2                	slli	ra,ra,0xc
    80000202:	67808093          	addi	ra,ra,1656 # 92678 <_start-0x7ff6d988>
    80000206:	4101                	li	sp,0
    80000208:	0020973b          	sllw	a4,ra,sp
    8000020c:	923453b7          	lui	t2,0x92345
    80000210:	6783839b          	addiw	t2,t2,1656
    80000214:	02e00193          	li	gp,46
    80000218:	26771f63          	bne	a4,t2,80000496 <fail>

000000008000021c <test_47>:
    8000021c:	000990b7          	lui	ra,0x99
    80000220:	3450809b          	addiw	ra,ra,837
    80000224:	00b2                	slli	ra,ra,0xc
    80000226:	67808093          	addi	ra,ra,1656 # 99678 <_start-0x7ff66988>
    8000022a:	4111                	li	sp,4
    8000022c:	0020973b          	sllw	a4,ra,sp
    80000230:	934563b7          	lui	t2,0x93456
    80000234:	7803839b          	addiw	t2,t2,1920
    80000238:	02f00193          	li	gp,47
    8000023c:	24771d63          	bne	a4,t2,80000496 <fail>

0000000080000240 <test_22>:
    80000240:	4085                	li	ra,1
    80000242:	411d                	li	sp,7
    80000244:	002090bb          	sllw	ra,ra,sp
    80000248:	08000393          	li	t2,128
    8000024c:	41d9                	li	gp,22
    8000024e:	24709463          	bne	ra,t2,80000496 <fail>

0000000080000252 <test_23>:
    80000252:	4085                	li	ra,1
    80000254:	4139                	li	sp,14
    80000256:	0020913b          	sllw	sp,ra,sp
    8000025a:	6391                	lui	t2,0x4
    8000025c:	41dd                	li	gp,23
    8000025e:	22711c63          	bne	sp,t2,80000496 <fail>

0000000080000262 <test_24>:
    80000262:	408d                	li	ra,3
    80000264:	001090bb          	sllw	ra,ra,ra
    80000268:	43e1                	li	t2,24
    8000026a:	41e1                	li	gp,24
    8000026c:	22709563          	bne	ra,t2,80000496 <fail>

0000000080000270 <test_25>:
    80000270:	4201                	li	tp,0
    80000272:	4085                	li	ra,1
    80000274:	411d                	li	sp,7
    80000276:	0020973b          	sllw	a4,ra,sp
    8000027a:	833a                	mv	t1,a4
    8000027c:	0205                	addi	tp,tp,1
    8000027e:	4289                	li	t0,2
    80000280:	fe5219e3          	bne	tp,t0,80000272 <test_25+0x2>
    80000284:	08000393          	li	t2,128
    80000288:	41e5                	li	gp,25
    8000028a:	20731663          	bne	t1,t2,80000496 <fail>

000000008000028e <test_26>:
    8000028e:	4201                	li	tp,0
    80000290:	4085                	li	ra,1
    80000292:	4139                	li	sp,14
    80000294:	0020973b          	sllw	a4,ra,sp
    80000298:	0001                	nop
    8000029a:	833a                	mv	t1,a4
    8000029c:	0205                	addi	tp,tp,1
    8000029e:	4289                	li	t0,2
    800002a0:	fe5218e3          	bne	tp,t0,80000290 <test_26+0x2>
    800002a4:	6391                	lui	t2,0x4
    800002a6:	41e9                	li	gp,26
    800002a8:	1e731763          	bne	t1,t2,80000496 <fail>

00000000800002ac <test_27>:
    800002ac:	4201                	li	tp,0
    800002ae:	4085                	li	ra,1
    800002b0:	417d                	li	sp,31
    800002b2:	0020973b          	sllw	a4,ra,sp
    800002b6:	0001                	nop
    800002b8:	0001                	nop
    800002ba:	833a                	mv	t1,a4
    800002bc:	0205                	addi	tp,tp,1
    800002be:	4289                	li	t0,2
    800002c0:	fe5217e3          	bne	tp,t0,800002ae <test_27+0x2>
    800002c4:	800003b7          	lui	t2,0x80000
    800002c8:	41ed                	li	gp,27
    800002ca:	1c731663          	bne	t1,t2,80000496 <fail>

00000000800002ce <test_28>:
    800002ce:	4201                	li	tp,0
    800002d0:	4085                	li	ra,1
    800002d2:	411d                	li	sp,7
    800002d4:	0020973b          	sllw	a4,ra,sp
    800002d8:	0205                	addi	tp,tp,1
    800002da:	4289                	li	t0,2
    800002dc:	fe521ae3          	bne	tp,t0,800002d0 <test_28+0x2>
    800002e0:	08000393          	li	t2,128
    800002e4:	41f1                	li	gp,28
    800002e6:	1a771863          	bne	a4,t2,80000496 <fail>

00000000800002ea <test_29>:
    800002ea:	4201                	li	tp,0
    800002ec:	4085                	li	ra,1
    800002ee:	4139                	li	sp,14
    800002f0:	0001                	nop
    800002f2:	0020973b          	sllw	a4,ra,sp
    800002f6:	0205                	addi	tp,tp,1
    800002f8:	4289                	li	t0,2
    800002fa:	fe5219e3          	bne	tp,t0,800002ec <test_29+0x2>
    800002fe:	6391                	lui	t2,0x4
    80000300:	41f5                	li	gp,29
    80000302:	18771a63          	bne	a4,t2,80000496 <fail>

0000000080000306 <test_30>:
    80000306:	4201                	li	tp,0
    80000308:	4085                	li	ra,1
    8000030a:	417d                	li	sp,31
    8000030c:	0001                	nop
    8000030e:	0001                	nop
    80000310:	0020973b          	sllw	a4,ra,sp
    80000314:	0205                	addi	tp,tp,1
    80000316:	4289                	li	t0,2
    80000318:	fe5218e3          	bne	tp,t0,80000308 <test_30+0x2>
    8000031c:	800003b7          	lui	t2,0x80000
    80000320:	41f9                	li	gp,30
    80000322:	16771a63          	bne	a4,t2,80000496 <fail>

0000000080000326 <test_31>:
    80000326:	4201                	li	tp,0
    80000328:	4085                	li	ra,1
    8000032a:	0001                	nop
    8000032c:	411d                	li	sp,7
    8000032e:	0020973b          	sllw	a4,ra,sp
    80000332:	0205                	addi	tp,tp,1
    80000334:	4289                	li	t0,2
    80000336:	fe5219e3          	bne	tp,t0,80000328 <test_31+0x2>
    8000033a:	08000393          	li	t2,128
    8000033e:	41fd                	li	gp,31
    80000340:	14771b63          	bne	a4,t2,80000496 <fail>

0000000080000344 <test_32>:
    80000344:	4201                	li	tp,0
    80000346:	4085                	li	ra,1
    80000348:	0001                	nop
    8000034a:	4139                	li	sp,14
    8000034c:	0001                	nop
    8000034e:	0020973b          	sllw	a4,ra,sp
    80000352:	0205                	addi	tp,tp,1
    80000354:	4289                	li	t0,2
    80000356:	fe5218e3          	bne	tp,t0,80000346 <test_32+0x2>
    8000035a:	6391                	lui	t2,0x4
    8000035c:	02000193          	li	gp,32
    80000360:	12771b63          	bne	a4,t2,80000496 <fail>

0000000080000364 <test_33>:
    80000364:	4201                	li	tp,0
    80000366:	4085                	li	ra,1
    80000368:	0001                	nop
    8000036a:	0001                	nop
    8000036c:	417d                	li	sp,31
    8000036e:	0020973b          	sllw	a4,ra,sp
    80000372:	0205                	addi	tp,tp,1
    80000374:	4289                	li	t0,2
    80000376:	fe5218e3          	bne	tp,t0,80000366 <test_33+0x2>
    8000037a:	800003b7          	lui	t2,0x80000
    8000037e:	02100193          	li	gp,33
    80000382:	10771a63          	bne	a4,t2,80000496 <fail>

0000000080000386 <test_34>:
    80000386:	4201                	li	tp,0
    80000388:	411d                	li	sp,7
    8000038a:	4085                	li	ra,1
    8000038c:	0020973b          	sllw	a4,ra,sp
    80000390:	0205                	addi	tp,tp,1
    80000392:	4289                	li	t0,2
    80000394:	fe521ae3          	bne	tp,t0,80000388 <test_34+0x2>
    80000398:	08000393          	li	t2,128
    8000039c:	02200193          	li	gp,34
    800003a0:	0e771b63          	bne	a4,t2,80000496 <fail>

00000000800003a4 <test_35>:
    800003a4:	4201                	li	tp,0
    800003a6:	4139                	li	sp,14
    800003a8:	4085                	li	ra,1
    800003aa:	0001                	nop
    800003ac:	0020973b          	sllw	a4,ra,sp
    800003b0:	0205                	addi	tp,tp,1
    800003b2:	4289                	li	t0,2
    800003b4:	fe5219e3          	bne	tp,t0,800003a6 <test_35+0x2>
    800003b8:	6391                	lui	t2,0x4
    800003ba:	02300193          	li	gp,35
    800003be:	0c771c63          	bne	a4,t2,80000496 <fail>

00000000800003c2 <test_36>:
    800003c2:	4201                	li	tp,0
    800003c4:	417d                	li	sp,31
    800003c6:	4085                	li	ra,1
    800003c8:	0001                	nop
    800003ca:	0001                	nop
    800003cc:	0020973b          	sllw	a4,ra,sp
    800003d0:	0205                	addi	tp,tp,1
    800003d2:	4289                	li	t0,2
    800003d4:	fe5218e3          	bne	tp,t0,800003c4 <test_36+0x2>
    800003d8:	800003b7          	lui	t2,0x80000
    800003dc:	02400193          	li	gp,36
    800003e0:	0a771b63          	bne	a4,t2,80000496 <fail>

00000000800003e4 <test_37>:
    800003e4:	4201                	li	tp,0
    800003e6:	411d                	li	sp,7
    800003e8:	0001                	nop
    800003ea:	4085                	li	ra,1
    800003ec:	0020973b          	sllw	a4,ra,sp
    800003f0:	0205                	addi	tp,tp,1
    800003f2:	4289                	li	t0,2
    800003f4:	fe5219e3          	bne	tp,t0,800003e6 <test_37+0x2>
    800003f8:	08000393          	li	t2,128
    800003fc:	02500193          	li	gp,37
    80000400:	08771b63          	bne	a4,t2,80000496 <fail>

0000000080000404 <test_38>:
    80000404:	4201                	li	tp,0
    80000406:	4139                	li	sp,14
    80000408:	0001                	nop
    8000040a:	4085                	li	ra,1
    8000040c:	0001                	nop
    8000040e:	0020973b          	sllw	a4,ra,sp
    80000412:	0205                	addi	tp,tp,1
    80000414:	4289                	li	t0,2
    80000416:	fe5218e3          	bne	tp,t0,80000406 <test_38+0x2>
    8000041a:	6391                	lui	t2,0x4
    8000041c:	02600193          	li	gp,38
    80000420:	06771b63          	bne	a4,t2,80000496 <fail>

0000000080000424 <test_39>:
    80000424:	4201                	li	tp,0
    80000426:	417d                	li	sp,31
    80000428:	0001                	nop
    8000042a:	0001                	nop
    8000042c:	4085                	li	ra,1
    8000042e:	0020973b          	sllw	a4,ra,sp
    80000432:	0205                	addi	tp,tp,1
    80000434:	4289                	li	t0,2
    80000436:	fe5218e3          	bne	tp,t0,80000426 <test_39+0x2>
    8000043a:	800003b7          	lui	t2,0x80000
    8000043e:	02700193          	li	gp,39
    80000442:	04771a63          	bne	a4,t2,80000496 <fail>

0000000080000446 <test_40>:
    80000446:	40bd                	li	ra,15
    80000448:	0010113b          	sllw	sp,zero,ra
    8000044c:	4381                	li	t2,0
    8000044e:	02800193          	li	gp,40
    80000452:	04711263          	bne	sp,t2,80000496 <fail>

0000000080000456 <test_41>:
    80000456:	02000093          	li	ra,32
    8000045a:	0000913b          	sllw	sp,ra,zero
    8000045e:	02000393          	li	t2,32
    80000462:	02900193          	li	gp,41
    80000466:	02711863          	bne	sp,t2,80000496 <fail>

000000008000046a <test_42>:
    8000046a:	000010bb          	sllw	ra,zero,zero
    8000046e:	4381                	li	t2,0
    80000470:	02a00193          	li	gp,42
    80000474:	02709163          	bne	ra,t2,80000496 <fail>

0000000080000478 <test_43>:
    80000478:	40000093          	li	ra,1024
    8000047c:	00001137          	lui	sp,0x1
    80000480:	8001011b          	addiw	sp,sp,-2048
    80000484:	0020903b          	sllw	zero,ra,sp
    80000488:	4381                	li	t2,0
    8000048a:	02b00193          	li	gp,43
    8000048e:	00701463          	bne	zero,t2,80000496 <fail>
    80000492:	00301563          	bne	zero,gp,8000049c <pass>

0000000080000496 <fail>:
    80000496:	4505                	li	a0,1
    80000498:	02a0006f          	j	800004c2 <halt>

000000008000049c <pass>:
    8000049c:	4501                	li	a0,0
    8000049e:	0240006f          	j	800004c2 <halt>
	...

00000000800004c2 <halt>:
    800004c2:	852a                	mv	a0,a0
    800004c4:	0000006b          	0x6b
    800004c8:	a001                	j	800004c8 <halt+0x6>
