
/home/mandelbrot/ics2020/am-kernels/tests/riscv-tests/build/slti-riscv64-nemu.elf：     文件格式 elf64-littleriscv


Disassembly of section .text:

0000000080000000 <_start>:
    80000000:	4081                	li	ra,0
    80000002:	0000a713          	slti	a4,ra,0
    80000006:	4381                	li	t2,0
    80000008:	4189                	li	gp,2
    8000000a:	1a771763          	bne	a4,t2,800001b8 <fail>

000000008000000e <test_3>:
    8000000e:	4085                	li	ra,1
    80000010:	0010a713          	slti	a4,ra,1
    80000014:	4381                	li	t2,0
    80000016:	418d                	li	gp,3
    80000018:	1a771063          	bne	a4,t2,800001b8 <fail>

000000008000001c <test_4>:
    8000001c:	408d                	li	ra,3
    8000001e:	0070a713          	slti	a4,ra,7
    80000022:	4385                	li	t2,1
    80000024:	4191                	li	gp,4
    80000026:	18771963          	bne	a4,t2,800001b8 <fail>

000000008000002a <test_5>:
    8000002a:	409d                	li	ra,7
    8000002c:	0030a713          	slti	a4,ra,3
    80000030:	4381                	li	t2,0
    80000032:	4195                	li	gp,5
    80000034:	18771263          	bne	a4,t2,800001b8 <fail>

0000000080000038 <test_6>:
    80000038:	4081                	li	ra,0
    8000003a:	8000a713          	slti	a4,ra,-2048
    8000003e:	4381                	li	t2,0
    80000040:	4199                	li	gp,6
    80000042:	16771b63          	bne	a4,t2,800001b8 <fail>

0000000080000046 <test_7>:
    80000046:	800000b7          	lui	ra,0x80000
    8000004a:	0000a713          	slti	a4,ra,0
    8000004e:	4385                	li	t2,1
    80000050:	419d                	li	gp,7
    80000052:	16771363          	bne	a4,t2,800001b8 <fail>

0000000080000056 <test_8>:
    80000056:	800000b7          	lui	ra,0x80000
    8000005a:	8000a713          	slti	a4,ra,-2048
    8000005e:	4385                	li	t2,1
    80000060:	41a1                	li	gp,8
    80000062:	14771b63          	bne	a4,t2,800001b8 <fail>

0000000080000066 <test_9>:
    80000066:	4081                	li	ra,0
    80000068:	7ff0a713          	slti	a4,ra,2047
    8000006c:	4385                	li	t2,1
    8000006e:	41a5                	li	gp,9
    80000070:	14771463          	bne	a4,t2,800001b8 <fail>

0000000080000074 <test_10>:
    80000074:	800000b7          	lui	ra,0x80000
    80000078:	30fd                	addiw	ra,ra,-1
    8000007a:	0000a713          	slti	a4,ra,0
    8000007e:	4381                	li	t2,0
    80000080:	41a9                	li	gp,10
    80000082:	12771b63          	bne	a4,t2,800001b8 <fail>

0000000080000086 <test_11>:
    80000086:	800000b7          	lui	ra,0x80000
    8000008a:	30fd                	addiw	ra,ra,-1
    8000008c:	7ff0a713          	slti	a4,ra,2047
    80000090:	4381                	li	t2,0
    80000092:	41ad                	li	gp,11
    80000094:	12771263          	bne	a4,t2,800001b8 <fail>

0000000080000098 <test_12>:
    80000098:	800000b7          	lui	ra,0x80000
    8000009c:	7ff0a713          	slti	a4,ra,2047
    800000a0:	4385                	li	t2,1
    800000a2:	41b1                	li	gp,12
    800000a4:	10771a63          	bne	a4,t2,800001b8 <fail>

00000000800000a8 <test_13>:
    800000a8:	800000b7          	lui	ra,0x80000
    800000ac:	30fd                	addiw	ra,ra,-1
    800000ae:	8000a713          	slti	a4,ra,-2048
    800000b2:	4381                	li	t2,0
    800000b4:	41b5                	li	gp,13
    800000b6:	10771163          	bne	a4,t2,800001b8 <fail>

00000000800000ba <test_14>:
    800000ba:	4081                	li	ra,0
    800000bc:	fff0a713          	slti	a4,ra,-1
    800000c0:	4381                	li	t2,0
    800000c2:	41b9                	li	gp,14
    800000c4:	0e771a63          	bne	a4,t2,800001b8 <fail>

00000000800000c8 <test_15>:
    800000c8:	50fd                	li	ra,-1
    800000ca:	0010a713          	slti	a4,ra,1
    800000ce:	4385                	li	t2,1
    800000d0:	41bd                	li	gp,15
    800000d2:	0e771363          	bne	a4,t2,800001b8 <fail>

00000000800000d6 <test_16>:
    800000d6:	50fd                	li	ra,-1
    800000d8:	fff0a713          	slti	a4,ra,-1
    800000dc:	4381                	li	t2,0
    800000de:	41c1                	li	gp,16
    800000e0:	0c771c63          	bne	a4,t2,800001b8 <fail>

00000000800000e4 <test_17>:
    800000e4:	40ad                	li	ra,11
    800000e6:	00d0a093          	slti	ra,ra,13
    800000ea:	4385                	li	t2,1
    800000ec:	41c5                	li	gp,17
    800000ee:	0c709563          	bne	ra,t2,800001b8 <fail>

00000000800000f2 <test_18>:
    800000f2:	4201                	li	tp,0
    800000f4:	40bd                	li	ra,15
    800000f6:	00a0a713          	slti	a4,ra,10
    800000fa:	833a                	mv	t1,a4
    800000fc:	0205                	addi	tp,tp,1
    800000fe:	4289                	li	t0,2
    80000100:	fe521ae3          	bne	tp,t0,800000f4 <test_18+0x2>
    80000104:	4381                	li	t2,0
    80000106:	41c9                	li	gp,18
    80000108:	0a731863          	bne	t1,t2,800001b8 <fail>

000000008000010c <test_19>:
    8000010c:	4201                	li	tp,0
    8000010e:	40a9                	li	ra,10
    80000110:	0100a713          	slti	a4,ra,16
    80000114:	0001                	nop
    80000116:	833a                	mv	t1,a4
    80000118:	0205                	addi	tp,tp,1
    8000011a:	4289                	li	t0,2
    8000011c:	fe5219e3          	bne	tp,t0,8000010e <test_19+0x2>
    80000120:	4385                	li	t2,1
    80000122:	41cd                	li	gp,19
    80000124:	08731a63          	bne	t1,t2,800001b8 <fail>

0000000080000128 <test_20>:
    80000128:	4201                	li	tp,0
    8000012a:	40c1                	li	ra,16
    8000012c:	0090a713          	slti	a4,ra,9
    80000130:	0001                	nop
    80000132:	0001                	nop
    80000134:	833a                	mv	t1,a4
    80000136:	0205                	addi	tp,tp,1
    80000138:	4289                	li	t0,2
    8000013a:	fe5218e3          	bne	tp,t0,8000012a <test_20+0x2>
    8000013e:	4381                	li	t2,0
    80000140:	41d1                	li	gp,20
    80000142:	06731b63          	bne	t1,t2,800001b8 <fail>

0000000080000146 <test_21>:
    80000146:	4201                	li	tp,0
    80000148:	40ad                	li	ra,11
    8000014a:	00f0a713          	slti	a4,ra,15
    8000014e:	0205                	addi	tp,tp,1
    80000150:	4289                	li	t0,2
    80000152:	fe521be3          	bne	tp,t0,80000148 <test_21+0x2>
    80000156:	4385                	li	t2,1
    80000158:	41d5                	li	gp,21
    8000015a:	04771f63          	bne	a4,t2,800001b8 <fail>

000000008000015e <test_22>:
    8000015e:	4201                	li	tp,0
    80000160:	40c5                	li	ra,17
    80000162:	0001                	nop
    80000164:	0080a713          	slti	a4,ra,8
    80000168:	0205                	addi	tp,tp,1
    8000016a:	4289                	li	t0,2
    8000016c:	fe521ae3          	bne	tp,t0,80000160 <test_22+0x2>
    80000170:	4381                	li	t2,0
    80000172:	41d9                	li	gp,22
    80000174:	04771263          	bne	a4,t2,800001b8 <fail>

0000000080000178 <test_23>:
    80000178:	4201                	li	tp,0
    8000017a:	40b1                	li	ra,12
    8000017c:	0001                	nop
    8000017e:	0001                	nop
    80000180:	00e0a713          	slti	a4,ra,14
    80000184:	0205                	addi	tp,tp,1
    80000186:	4289                	li	t0,2
    80000188:	fe5219e3          	bne	tp,t0,8000017a <test_23+0x2>
    8000018c:	4385                	li	t2,1
    8000018e:	41dd                	li	gp,23
    80000190:	02771463          	bne	a4,t2,800001b8 <fail>

0000000080000194 <test_24>:
    80000194:	fff02093          	slti	ra,zero,-1
    80000198:	4381                	li	t2,0
    8000019a:	41e1                	li	gp,24
    8000019c:	00709e63          	bne	ra,t2,800001b8 <fail>

00000000800001a0 <test_25>:
    800001a0:	00ff00b7          	lui	ra,0xff0
    800001a4:	0ff0809b          	addiw	ra,ra,255
    800001a8:	fff0a013          	slti	zero,ra,-1
    800001ac:	4381                	li	t2,0
    800001ae:	41e5                	li	gp,25
    800001b0:	00701463          	bne	zero,t2,800001b8 <fail>
    800001b4:	00301563          	bne	zero,gp,800001be <pass>

00000000800001b8 <fail>:
    800001b8:	4505                	li	a0,1
    800001ba:	0480006f          	j	80000202 <halt>

00000000800001be <pass>:
    800001be:	4501                	li	a0,0
    800001c0:	0420006f          	j	80000202 <halt>
	...

0000000080000202 <halt>:
    80000202:	852a                	mv	a0,a0
    80000204:	0000006b          	0x6b
    80000208:	a001                	j	80000208 <halt+0x6>
