
/home/mandelbrot/ics2020/am-kernels/tests/riscv-tests/build/sra-riscv64-nemu.elf：     文件格式 elf64-littleriscv


Disassembly of section .text:

0000000080000000 <_start>:
    80000000:	800000b7          	lui	ra,0x80000
    80000004:	4101                	li	sp,0
    80000006:	4020d733          	sra	a4,ra,sp
    8000000a:	800003b7          	lui	t2,0x80000
    8000000e:	4189                	li	gp,2
    80000010:	44771263          	bne	a4,t2,80000454 <fail>

0000000080000014 <test_3>:
    80000014:	800000b7          	lui	ra,0x80000
    80000018:	4105                	li	sp,1
    8000001a:	4020d733          	sra	a4,ra,sp
    8000001e:	c00003b7          	lui	t2,0xc0000
    80000022:	418d                	li	gp,3
    80000024:	42771863          	bne	a4,t2,80000454 <fail>

0000000080000028 <test_4>:
    80000028:	800000b7          	lui	ra,0x80000
    8000002c:	411d                	li	sp,7
    8000002e:	4020d733          	sra	a4,ra,sp
    80000032:	ff0003b7          	lui	t2,0xff000
    80000036:	4191                	li	gp,4
    80000038:	40771e63          	bne	a4,t2,80000454 <fail>

000000008000003c <test_5>:
    8000003c:	800000b7          	lui	ra,0x80000
    80000040:	4139                	li	sp,14
    80000042:	4020d733          	sra	a4,ra,sp
    80000046:	7381                	lui	t2,0xfffe0
    80000048:	4195                	li	gp,5
    8000004a:	40771563          	bne	a4,t2,80000454 <fail>

000000008000004e <test_6>:
    8000004e:	800000b7          	lui	ra,0x80000
    80000052:	2085                	addiw	ra,ra,1
    80000054:	417d                	li	sp,31
    80000056:	4020d733          	sra	a4,ra,sp
    8000005a:	53fd                	li	t2,-1
    8000005c:	4199                	li	gp,6
    8000005e:	3e771b63          	bne	a4,t2,80000454 <fail>

0000000080000062 <test_7>:
    80000062:	800000b7          	lui	ra,0x80000
    80000066:	30fd                	addiw	ra,ra,-1
    80000068:	4101                	li	sp,0
    8000006a:	4020d733          	sra	a4,ra,sp
    8000006e:	800003b7          	lui	t2,0x80000
    80000072:	33fd                	addiw	t2,t2,-1
    80000074:	419d                	li	gp,7
    80000076:	3c771f63          	bne	a4,t2,80000454 <fail>

000000008000007a <test_8>:
    8000007a:	800000b7          	lui	ra,0x80000
    8000007e:	30fd                	addiw	ra,ra,-1
    80000080:	4105                	li	sp,1
    80000082:	4020d733          	sra	a4,ra,sp
    80000086:	400003b7          	lui	t2,0x40000
    8000008a:	33fd                	addiw	t2,t2,-1
    8000008c:	41a1                	li	gp,8
    8000008e:	3c771363          	bne	a4,t2,80000454 <fail>

0000000080000092 <test_9>:
    80000092:	800000b7          	lui	ra,0x80000
    80000096:	30fd                	addiw	ra,ra,-1
    80000098:	411d                	li	sp,7
    8000009a:	4020d733          	sra	a4,ra,sp
    8000009e:	010003b7          	lui	t2,0x1000
    800000a2:	33fd                	addiw	t2,t2,-1
    800000a4:	41a5                	li	gp,9
    800000a6:	3a771763          	bne	a4,t2,80000454 <fail>

00000000800000aa <test_10>:
    800000aa:	800000b7          	lui	ra,0x80000
    800000ae:	30fd                	addiw	ra,ra,-1
    800000b0:	4139                	li	sp,14
    800000b2:	4020d733          	sra	a4,ra,sp
    800000b6:	000203b7          	lui	t2,0x20
    800000ba:	33fd                	addiw	t2,t2,-1
    800000bc:	41a9                	li	gp,10
    800000be:	38771b63          	bne	a4,t2,80000454 <fail>

00000000800000c2 <test_11>:
    800000c2:	800000b7          	lui	ra,0x80000
    800000c6:	30fd                	addiw	ra,ra,-1
    800000c8:	417d                	li	sp,31
    800000ca:	4020d733          	sra	a4,ra,sp
    800000ce:	4381                	li	t2,0
    800000d0:	41ad                	li	gp,11
    800000d2:	38771163          	bne	a4,t2,80000454 <fail>

00000000800000d6 <test_12>:
    800000d6:	818180b7          	lui	ra,0x81818
    800000da:	1810809b          	addiw	ra,ra,385
    800000de:	4101                	li	sp,0
    800000e0:	4020d733          	sra	a4,ra,sp
    800000e4:	818183b7          	lui	t2,0x81818
    800000e8:	1813839b          	addiw	t2,t2,385
    800000ec:	41b1                	li	gp,12
    800000ee:	36771363          	bne	a4,t2,80000454 <fail>

00000000800000f2 <test_13>:
    800000f2:	818180b7          	lui	ra,0x81818
    800000f6:	1810809b          	addiw	ra,ra,385
    800000fa:	4105                	li	sp,1
    800000fc:	4020d733          	sra	a4,ra,sp
    80000100:	c0c0c3b7          	lui	t2,0xc0c0c
    80000104:	0c03839b          	addiw	t2,t2,192
    80000108:	41b5                	li	gp,13
    8000010a:	34771563          	bne	a4,t2,80000454 <fail>

000000008000010e <test_14>:
    8000010e:	818180b7          	lui	ra,0x81818
    80000112:	1810809b          	addiw	ra,ra,385
    80000116:	411d                	li	sp,7
    80000118:	4020d733          	sra	a4,ra,sp
    8000011c:	ff0303b7          	lui	t2,0xff030
    80000120:	3033839b          	addiw	t2,t2,771
    80000124:	41b9                	li	gp,14
    80000126:	32771763          	bne	a4,t2,80000454 <fail>

000000008000012a <test_15>:
    8000012a:	818180b7          	lui	ra,0x81818
    8000012e:	1810809b          	addiw	ra,ra,385
    80000132:	4139                	li	sp,14
    80000134:	4020d733          	sra	a4,ra,sp
    80000138:	7381                	lui	t2,0xfffe0
    8000013a:	6063839b          	addiw	t2,t2,1542
    8000013e:	41bd                	li	gp,15
    80000140:	30771a63          	bne	a4,t2,80000454 <fail>

0000000080000144 <test_16>:
    80000144:	818180b7          	lui	ra,0x81818
    80000148:	1810809b          	addiw	ra,ra,385
    8000014c:	417d                	li	sp,31
    8000014e:	4020d733          	sra	a4,ra,sp
    80000152:	53fd                	li	t2,-1
    80000154:	41c1                	li	gp,16
    80000156:	2e771f63          	bne	a4,t2,80000454 <fail>

000000008000015a <test_17>:
    8000015a:	818180b7          	lui	ra,0x81818
    8000015e:	1810809b          	addiw	ra,ra,385
    80000162:	fc000113          	li	sp,-64
    80000166:	4020d733          	sra	a4,ra,sp
    8000016a:	818183b7          	lui	t2,0x81818
    8000016e:	1813839b          	addiw	t2,t2,385
    80000172:	41c5                	li	gp,17
    80000174:	2e771063          	bne	a4,t2,80000454 <fail>

0000000080000178 <test_18>:
    80000178:	818180b7          	lui	ra,0x81818
    8000017c:	1810809b          	addiw	ra,ra,385
    80000180:	fc100113          	li	sp,-63
    80000184:	4020d733          	sra	a4,ra,sp
    80000188:	c0c0c3b7          	lui	t2,0xc0c0c
    8000018c:	0c03839b          	addiw	t2,t2,192
    80000190:	41c9                	li	gp,18
    80000192:	2c771163          	bne	a4,t2,80000454 <fail>

0000000080000196 <test_19>:
    80000196:	818180b7          	lui	ra,0x81818
    8000019a:	1810809b          	addiw	ra,ra,385
    8000019e:	fc700113          	li	sp,-57
    800001a2:	4020d733          	sra	a4,ra,sp
    800001a6:	ff0303b7          	lui	t2,0xff030
    800001aa:	3033839b          	addiw	t2,t2,771
    800001ae:	41cd                	li	gp,19
    800001b0:	2a771263          	bne	a4,t2,80000454 <fail>

00000000800001b4 <test_20>:
    800001b4:	818180b7          	lui	ra,0x81818
    800001b8:	1810809b          	addiw	ra,ra,385
    800001bc:	fce00113          	li	sp,-50
    800001c0:	4020d733          	sra	a4,ra,sp
    800001c4:	7381                	lui	t2,0xfffe0
    800001c6:	6063839b          	addiw	t2,t2,1542
    800001ca:	41d1                	li	gp,20
    800001cc:	28771463          	bne	a4,t2,80000454 <fail>

00000000800001d0 <test_21>:
    800001d0:	818180b7          	lui	ra,0x81818
    800001d4:	1810809b          	addiw	ra,ra,385
    800001d8:	517d                	li	sp,-1
    800001da:	4020d733          	sra	a4,ra,sp
    800001de:	53fd                	li	t2,-1
    800001e0:	41d5                	li	gp,21
    800001e2:	26771963          	bne	a4,t2,80000454 <fail>

00000000800001e6 <test_22>:
    800001e6:	800000b7          	lui	ra,0x80000
    800001ea:	411d                	li	sp,7
    800001ec:	4020d0b3          	sra	ra,ra,sp
    800001f0:	ff0003b7          	lui	t2,0xff000
    800001f4:	41d9                	li	gp,22
    800001f6:	24709f63          	bne	ra,t2,80000454 <fail>

00000000800001fa <test_23>:
    800001fa:	800000b7          	lui	ra,0x80000
    800001fe:	4139                	li	sp,14
    80000200:	4020d133          	sra	sp,ra,sp
    80000204:	7381                	lui	t2,0xfffe0
    80000206:	41dd                	li	gp,23
    80000208:	24711663          	bne	sp,t2,80000454 <fail>

000000008000020c <test_24>:
    8000020c:	409d                	li	ra,7
    8000020e:	4010d0b3          	sra	ra,ra,ra
    80000212:	4381                	li	t2,0
    80000214:	41e1                	li	gp,24
    80000216:	22709f63          	bne	ra,t2,80000454 <fail>

000000008000021a <test_25>:
    8000021a:	4201                	li	tp,0
    8000021c:	800000b7          	lui	ra,0x80000
    80000220:	411d                	li	sp,7
    80000222:	4020d733          	sra	a4,ra,sp
    80000226:	833a                	mv	t1,a4
    80000228:	0205                	addi	tp,tp,1
    8000022a:	4289                	li	t0,2
    8000022c:	fe5218e3          	bne	tp,t0,8000021c <test_25+0x2>
    80000230:	ff0003b7          	lui	t2,0xff000
    80000234:	41e5                	li	gp,25
    80000236:	20731f63          	bne	t1,t2,80000454 <fail>

000000008000023a <test_26>:
    8000023a:	4201                	li	tp,0
    8000023c:	800000b7          	lui	ra,0x80000
    80000240:	4139                	li	sp,14
    80000242:	4020d733          	sra	a4,ra,sp
    80000246:	0001                	nop
    80000248:	833a                	mv	t1,a4
    8000024a:	0205                	addi	tp,tp,1
    8000024c:	4289                	li	t0,2
    8000024e:	fe5217e3          	bne	tp,t0,8000023c <test_26+0x2>
    80000252:	7381                	lui	t2,0xfffe0
    80000254:	41e9                	li	gp,26
    80000256:	1e731f63          	bne	t1,t2,80000454 <fail>

000000008000025a <test_27>:
    8000025a:	4201                	li	tp,0
    8000025c:	800000b7          	lui	ra,0x80000
    80000260:	417d                	li	sp,31
    80000262:	4020d733          	sra	a4,ra,sp
    80000266:	0001                	nop
    80000268:	0001                	nop
    8000026a:	833a                	mv	t1,a4
    8000026c:	0205                	addi	tp,tp,1
    8000026e:	4289                	li	t0,2
    80000270:	fe5216e3          	bne	tp,t0,8000025c <test_27+0x2>
    80000274:	53fd                	li	t2,-1
    80000276:	41ed                	li	gp,27
    80000278:	1c731e63          	bne	t1,t2,80000454 <fail>

000000008000027c <test_28>:
    8000027c:	4201                	li	tp,0
    8000027e:	800000b7          	lui	ra,0x80000
    80000282:	411d                	li	sp,7
    80000284:	4020d733          	sra	a4,ra,sp
    80000288:	0205                	addi	tp,tp,1
    8000028a:	4289                	li	t0,2
    8000028c:	fe5219e3          	bne	tp,t0,8000027e <test_28+0x2>
    80000290:	ff0003b7          	lui	t2,0xff000
    80000294:	41f1                	li	gp,28
    80000296:	1a771f63          	bne	a4,t2,80000454 <fail>

000000008000029a <test_29>:
    8000029a:	4201                	li	tp,0
    8000029c:	800000b7          	lui	ra,0x80000
    800002a0:	4139                	li	sp,14
    800002a2:	0001                	nop
    800002a4:	4020d733          	sra	a4,ra,sp
    800002a8:	0205                	addi	tp,tp,1
    800002aa:	4289                	li	t0,2
    800002ac:	fe5218e3          	bne	tp,t0,8000029c <test_29+0x2>
    800002b0:	7381                	lui	t2,0xfffe0
    800002b2:	41f5                	li	gp,29
    800002b4:	1a771063          	bne	a4,t2,80000454 <fail>

00000000800002b8 <test_30>:
    800002b8:	4201                	li	tp,0
    800002ba:	800000b7          	lui	ra,0x80000
    800002be:	417d                	li	sp,31
    800002c0:	0001                	nop
    800002c2:	0001                	nop
    800002c4:	4020d733          	sra	a4,ra,sp
    800002c8:	0205                	addi	tp,tp,1
    800002ca:	4289                	li	t0,2
    800002cc:	fe5217e3          	bne	tp,t0,800002ba <test_30+0x2>
    800002d0:	53fd                	li	t2,-1
    800002d2:	41f9                	li	gp,30
    800002d4:	18771063          	bne	a4,t2,80000454 <fail>

00000000800002d8 <test_31>:
    800002d8:	4201                	li	tp,0
    800002da:	800000b7          	lui	ra,0x80000
    800002de:	0001                	nop
    800002e0:	411d                	li	sp,7
    800002e2:	4020d733          	sra	a4,ra,sp
    800002e6:	0205                	addi	tp,tp,1
    800002e8:	4289                	li	t0,2
    800002ea:	fe5218e3          	bne	tp,t0,800002da <test_31+0x2>
    800002ee:	ff0003b7          	lui	t2,0xff000
    800002f2:	41fd                	li	gp,31
    800002f4:	16771063          	bne	a4,t2,80000454 <fail>

00000000800002f8 <test_32>:
    800002f8:	4201                	li	tp,0
    800002fa:	800000b7          	lui	ra,0x80000
    800002fe:	0001                	nop
    80000300:	4139                	li	sp,14
    80000302:	0001                	nop
    80000304:	4020d733          	sra	a4,ra,sp
    80000308:	0205                	addi	tp,tp,1
    8000030a:	4289                	li	t0,2
    8000030c:	fe5217e3          	bne	tp,t0,800002fa <test_32+0x2>
    80000310:	7381                	lui	t2,0xfffe0
    80000312:	02000193          	li	gp,32
    80000316:	12771f63          	bne	a4,t2,80000454 <fail>

000000008000031a <test_33>:
    8000031a:	4201                	li	tp,0
    8000031c:	800000b7          	lui	ra,0x80000
    80000320:	0001                	nop
    80000322:	0001                	nop
    80000324:	417d                	li	sp,31
    80000326:	4020d733          	sra	a4,ra,sp
    8000032a:	0205                	addi	tp,tp,1
    8000032c:	4289                	li	t0,2
    8000032e:	fe5217e3          	bne	tp,t0,8000031c <test_33+0x2>
    80000332:	53fd                	li	t2,-1
    80000334:	02100193          	li	gp,33
    80000338:	10771e63          	bne	a4,t2,80000454 <fail>

000000008000033c <test_34>:
    8000033c:	4201                	li	tp,0
    8000033e:	411d                	li	sp,7
    80000340:	800000b7          	lui	ra,0x80000
    80000344:	4020d733          	sra	a4,ra,sp
    80000348:	0205                	addi	tp,tp,1
    8000034a:	4289                	li	t0,2
    8000034c:	fe5219e3          	bne	tp,t0,8000033e <test_34+0x2>
    80000350:	ff0003b7          	lui	t2,0xff000
    80000354:	02200193          	li	gp,34
    80000358:	0e771e63          	bne	a4,t2,80000454 <fail>

000000008000035c <test_35>:
    8000035c:	4201                	li	tp,0
    8000035e:	4139                	li	sp,14
    80000360:	800000b7          	lui	ra,0x80000
    80000364:	0001                	nop
    80000366:	4020d733          	sra	a4,ra,sp
    8000036a:	0205                	addi	tp,tp,1
    8000036c:	4289                	li	t0,2
    8000036e:	fe5218e3          	bne	tp,t0,8000035e <test_35+0x2>
    80000372:	7381                	lui	t2,0xfffe0
    80000374:	02300193          	li	gp,35
    80000378:	0c771e63          	bne	a4,t2,80000454 <fail>

000000008000037c <test_36>:
    8000037c:	4201                	li	tp,0
    8000037e:	417d                	li	sp,31
    80000380:	800000b7          	lui	ra,0x80000
    80000384:	0001                	nop
    80000386:	0001                	nop
    80000388:	4020d733          	sra	a4,ra,sp
    8000038c:	0205                	addi	tp,tp,1
    8000038e:	4289                	li	t0,2
    80000390:	fe5217e3          	bne	tp,t0,8000037e <test_36+0x2>
    80000394:	53fd                	li	t2,-1
    80000396:	02400193          	li	gp,36
    8000039a:	0a771d63          	bne	a4,t2,80000454 <fail>

000000008000039e <test_37>:
    8000039e:	4201                	li	tp,0
    800003a0:	411d                	li	sp,7
    800003a2:	0001                	nop
    800003a4:	800000b7          	lui	ra,0x80000
    800003a8:	4020d733          	sra	a4,ra,sp
    800003ac:	0205                	addi	tp,tp,1
    800003ae:	4289                	li	t0,2
    800003b0:	fe5218e3          	bne	tp,t0,800003a0 <test_37+0x2>
    800003b4:	ff0003b7          	lui	t2,0xff000
    800003b8:	02500193          	li	gp,37
    800003bc:	08771c63          	bne	a4,t2,80000454 <fail>

00000000800003c0 <test_38>:
    800003c0:	4201                	li	tp,0
    800003c2:	4139                	li	sp,14
    800003c4:	0001                	nop
    800003c6:	800000b7          	lui	ra,0x80000
    800003ca:	0001                	nop
    800003cc:	4020d733          	sra	a4,ra,sp
    800003d0:	0205                	addi	tp,tp,1
    800003d2:	4289                	li	t0,2
    800003d4:	fe5217e3          	bne	tp,t0,800003c2 <test_38+0x2>
    800003d8:	7381                	lui	t2,0xfffe0
    800003da:	02600193          	li	gp,38
    800003de:	06771b63          	bne	a4,t2,80000454 <fail>

00000000800003e2 <test_39>:
    800003e2:	4201                	li	tp,0
    800003e4:	417d                	li	sp,31
    800003e6:	0001                	nop
    800003e8:	0001                	nop
    800003ea:	800000b7          	lui	ra,0x80000
    800003ee:	4020d733          	sra	a4,ra,sp
    800003f2:	0205                	addi	tp,tp,1
    800003f4:	4289                	li	t0,2
    800003f6:	fe5217e3          	bne	tp,t0,800003e4 <test_39+0x2>
    800003fa:	53fd                	li	t2,-1
    800003fc:	02700193          	li	gp,39
    80000400:	04771a63          	bne	a4,t2,80000454 <fail>

0000000080000404 <test_40>:
    80000404:	40bd                	li	ra,15
    80000406:	40105133          	sra	sp,zero,ra
    8000040a:	4381                	li	t2,0
    8000040c:	02800193          	li	gp,40
    80000410:	04711263          	bne	sp,t2,80000454 <fail>

0000000080000414 <test_41>:
    80000414:	02000093          	li	ra,32
    80000418:	4000d133          	sra	sp,ra,zero
    8000041c:	02000393          	li	t2,32
    80000420:	02900193          	li	gp,41
    80000424:	02711863          	bne	sp,t2,80000454 <fail>

0000000080000428 <test_42>:
    80000428:	400050b3          	sra	ra,zero,zero
    8000042c:	4381                	li	t2,0
    8000042e:	02a00193          	li	gp,42
    80000432:	02709163          	bne	ra,t2,80000454 <fail>

0000000080000436 <test_43>:
    80000436:	40000093          	li	ra,1024
    8000043a:	00001137          	lui	sp,0x1
    8000043e:	8001011b          	addiw	sp,sp,-2048
    80000442:	4020d033          	sra	zero,ra,sp
    80000446:	4381                	li	t2,0
    80000448:	02b00193          	li	gp,43
    8000044c:	00701463          	bne	zero,t2,80000454 <fail>
    80000450:	00301563          	bne	zero,gp,8000045a <pass>

0000000080000454 <fail>:
    80000454:	4505                	li	a0,1
    80000456:	02c0006f          	j	80000482 <halt>

000000008000045a <pass>:
    8000045a:	4501                	li	a0,0
    8000045c:	0260006f          	j	80000482 <halt>
	...

0000000080000482 <halt>:
    80000482:	852a                	mv	a0,a0
    80000484:	0000006b          	0x6b
    80000488:	a001                	j	80000488 <halt+0x6>
