
/home/mandelbrot/ics2020/am-kernels/tests/riscv-tests/build/srl-riscv64-nemu.elf：     文件格式 elf64-littleriscv


Disassembly of section .text:

0000000080000000 <_start>:
    80000000:	800000b7          	lui	ra,0x80000
    80000004:	4101                	li	sp,0
    80000006:	0020d733          	srl	a4,ra,sp
    8000000a:	800003b7          	lui	t2,0x80000
    8000000e:	4189                	li	gp,2
    80000010:	48771063          	bne	a4,t2,80000490 <fail>

0000000080000014 <test_3>:
    80000014:	800000b7          	lui	ra,0x80000
    80000018:	4105                	li	sp,1
    8000001a:	0020d733          	srl	a4,ra,sp
    8000001e:	0010039b          	addiw	t2,zero,1
    80000022:	1386                	slli	t2,t2,0x21
    80000024:	13fd                	addi	t2,t2,-1
    80000026:	03fa                	slli	t2,t2,0x1e
    80000028:	418d                	li	gp,3
    8000002a:	46771363          	bne	a4,t2,80000490 <fail>

000000008000002e <test_4>:
    8000002e:	800000b7          	lui	ra,0x80000
    80000032:	411d                	li	sp,7
    80000034:	0020d733          	srl	a4,ra,sp
    80000038:	0010039b          	addiw	t2,zero,1
    8000003c:	1386                	slli	t2,t2,0x21
    8000003e:	13fd                	addi	t2,t2,-1
    80000040:	03e2                	slli	t2,t2,0x18
    80000042:	4191                	li	gp,4
    80000044:	44771663          	bne	a4,t2,80000490 <fail>

0000000080000048 <test_5>:
    80000048:	800000b7          	lui	ra,0x80000
    8000004c:	4139                	li	sp,14
    8000004e:	0020d733          	srl	a4,ra,sp
    80000052:	0010039b          	addiw	t2,zero,1
    80000056:	1386                	slli	t2,t2,0x21
    80000058:	13fd                	addi	t2,t2,-1
    8000005a:	03c6                	slli	t2,t2,0x11
    8000005c:	4195                	li	gp,5
    8000005e:	42771963          	bne	a4,t2,80000490 <fail>

0000000080000062 <test_6>:
    80000062:	800000b7          	lui	ra,0x80000
    80000066:	2085                	addiw	ra,ra,1
    80000068:	417d                	li	sp,31
    8000006a:	0020d733          	srl	a4,ra,sp
    8000006e:	0010039b          	addiw	t2,zero,1
    80000072:	1386                	slli	t2,t2,0x21
    80000074:	13fd                	addi	t2,t2,-1
    80000076:	4199                	li	gp,6
    80000078:	40771c63          	bne	a4,t2,80000490 <fail>

000000008000007c <test_7>:
    8000007c:	50fd                	li	ra,-1
    8000007e:	4101                	li	sp,0
    80000080:	0020d733          	srl	a4,ra,sp
    80000084:	53fd                	li	t2,-1
    80000086:	419d                	li	gp,7
    80000088:	40771463          	bne	a4,t2,80000490 <fail>

000000008000008c <test_8>:
    8000008c:	50fd                	li	ra,-1
    8000008e:	4105                	li	sp,1
    80000090:	0020d733          	srl	a4,ra,sp
    80000094:	fff0039b          	addiw	t2,zero,-1
    80000098:	13fe                	slli	t2,t2,0x3f
    8000009a:	13fd                	addi	t2,t2,-1
    8000009c:	41a1                	li	gp,8
    8000009e:	3e771963          	bne	a4,t2,80000490 <fail>

00000000800000a2 <test_9>:
    800000a2:	50fd                	li	ra,-1
    800000a4:	411d                	li	sp,7
    800000a6:	0020d733          	srl	a4,ra,sp
    800000aa:	0010039b          	addiw	t2,zero,1
    800000ae:	13e6                	slli	t2,t2,0x39
    800000b0:	13fd                	addi	t2,t2,-1
    800000b2:	41a5                	li	gp,9
    800000b4:	3c771e63          	bne	a4,t2,80000490 <fail>

00000000800000b8 <test_10>:
    800000b8:	50fd                	li	ra,-1
    800000ba:	4139                	li	sp,14
    800000bc:	0020d733          	srl	a4,ra,sp
    800000c0:	0010039b          	addiw	t2,zero,1
    800000c4:	13ca                	slli	t2,t2,0x32
    800000c6:	13fd                	addi	t2,t2,-1
    800000c8:	41a9                	li	gp,10
    800000ca:	3c771363          	bne	a4,t2,80000490 <fail>

00000000800000ce <test_11>:
    800000ce:	50fd                	li	ra,-1
    800000d0:	417d                	li	sp,31
    800000d2:	0020d733          	srl	a4,ra,sp
    800000d6:	0010039b          	addiw	t2,zero,1
    800000da:	1386                	slli	t2,t2,0x21
    800000dc:	13fd                	addi	t2,t2,-1
    800000de:	41ad                	li	gp,11
    800000e0:	3a771863          	bne	a4,t2,80000490 <fail>

00000000800000e4 <test_12>:
    800000e4:	212120b7          	lui	ra,0x21212
    800000e8:	1210809b          	addiw	ra,ra,289
    800000ec:	4101                	li	sp,0
    800000ee:	0020d733          	srl	a4,ra,sp
    800000f2:	212123b7          	lui	t2,0x21212
    800000f6:	1213839b          	addiw	t2,t2,289
    800000fa:	41b1                	li	gp,12
    800000fc:	38771a63          	bne	a4,t2,80000490 <fail>

0000000080000100 <test_13>:
    80000100:	212120b7          	lui	ra,0x21212
    80000104:	1210809b          	addiw	ra,ra,289
    80000108:	4105                	li	sp,1
    8000010a:	0020d733          	srl	a4,ra,sp
    8000010e:	109093b7          	lui	t2,0x10909
    80000112:	0903839b          	addiw	t2,t2,144
    80000116:	41b5                	li	gp,13
    80000118:	36771c63          	bne	a4,t2,80000490 <fail>

000000008000011c <test_14>:
    8000011c:	212120b7          	lui	ra,0x21212
    80000120:	1210809b          	addiw	ra,ra,289
    80000124:	411d                	li	sp,7
    80000126:	0020d733          	srl	a4,ra,sp
    8000012a:	004243b7          	lui	t2,0x424
    8000012e:	2423839b          	addiw	t2,t2,578
    80000132:	41b9                	li	gp,14
    80000134:	34771e63          	bne	a4,t2,80000490 <fail>

0000000080000138 <test_15>:
    80000138:	212120b7          	lui	ra,0x21212
    8000013c:	1210809b          	addiw	ra,ra,289
    80000140:	4139                	li	sp,14
    80000142:	0020d733          	srl	a4,ra,sp
    80000146:	63a1                	lui	t2,0x8
    80000148:	4843839b          	addiw	t2,t2,1156
    8000014c:	41bd                	li	gp,15
    8000014e:	34771163          	bne	a4,t2,80000490 <fail>

0000000080000152 <test_16>:
    80000152:	212120b7          	lui	ra,0x21212
    80000156:	1210809b          	addiw	ra,ra,289
    8000015a:	417d                	li	sp,31
    8000015c:	0020d733          	srl	a4,ra,sp
    80000160:	4381                	li	t2,0
    80000162:	41c1                	li	gp,16
    80000164:	32771663          	bne	a4,t2,80000490 <fail>

0000000080000168 <test_17>:
    80000168:	212120b7          	lui	ra,0x21212
    8000016c:	1210809b          	addiw	ra,ra,289
    80000170:	fc000113          	li	sp,-64
    80000174:	0020d733          	srl	a4,ra,sp
    80000178:	212123b7          	lui	t2,0x21212
    8000017c:	1213839b          	addiw	t2,t2,289
    80000180:	41c5                	li	gp,17
    80000182:	30771763          	bne	a4,t2,80000490 <fail>

0000000080000186 <test_18>:
    80000186:	212120b7          	lui	ra,0x21212
    8000018a:	1210809b          	addiw	ra,ra,289
    8000018e:	fc100113          	li	sp,-63
    80000192:	0020d733          	srl	a4,ra,sp
    80000196:	109093b7          	lui	t2,0x10909
    8000019a:	0903839b          	addiw	t2,t2,144
    8000019e:	41c9                	li	gp,18
    800001a0:	2e771863          	bne	a4,t2,80000490 <fail>

00000000800001a4 <test_19>:
    800001a4:	212120b7          	lui	ra,0x21212
    800001a8:	1210809b          	addiw	ra,ra,289
    800001ac:	fc700113          	li	sp,-57
    800001b0:	0020d733          	srl	a4,ra,sp
    800001b4:	004243b7          	lui	t2,0x424
    800001b8:	2423839b          	addiw	t2,t2,578
    800001bc:	41cd                	li	gp,19
    800001be:	2c771963          	bne	a4,t2,80000490 <fail>

00000000800001c2 <test_20>:
    800001c2:	212120b7          	lui	ra,0x21212
    800001c6:	1210809b          	addiw	ra,ra,289
    800001ca:	fce00113          	li	sp,-50
    800001ce:	0020d733          	srl	a4,ra,sp
    800001d2:	63a1                	lui	t2,0x8
    800001d4:	4843839b          	addiw	t2,t2,1156
    800001d8:	41d1                	li	gp,20
    800001da:	2a771b63          	bne	a4,t2,80000490 <fail>

00000000800001de <test_21>:
    800001de:	212120b7          	lui	ra,0x21212
    800001e2:	1210809b          	addiw	ra,ra,289
    800001e6:	517d                	li	sp,-1
    800001e8:	0020d733          	srl	a4,ra,sp
    800001ec:	4381                	li	t2,0
    800001ee:	41d5                	li	gp,21
    800001f0:	2a771063          	bne	a4,t2,80000490 <fail>

00000000800001f4 <test_22>:
    800001f4:	0010009b          	addiw	ra,zero,1
    800001f8:	00fe                	slli	ra,ra,0x1f
    800001fa:	411d                	li	sp,7
    800001fc:	0020d0b3          	srl	ra,ra,sp
    80000200:	010003b7          	lui	t2,0x1000
    80000204:	41d9                	li	gp,22
    80000206:	28709563          	bne	ra,t2,80000490 <fail>

000000008000020a <test_23>:
    8000020a:	0010009b          	addiw	ra,zero,1
    8000020e:	00fe                	slli	ra,ra,0x1f
    80000210:	4139                	li	sp,14
    80000212:	0020d133          	srl	sp,ra,sp
    80000216:	000203b7          	lui	t2,0x20
    8000021a:	41dd                	li	gp,23
    8000021c:	26711a63          	bne	sp,t2,80000490 <fail>

0000000080000220 <test_24>:
    80000220:	409d                	li	ra,7
    80000222:	0010d0b3          	srl	ra,ra,ra
    80000226:	4381                	li	t2,0
    80000228:	41e1                	li	gp,24
    8000022a:	26709363          	bne	ra,t2,80000490 <fail>

000000008000022e <test_25>:
    8000022e:	4201                	li	tp,0
    80000230:	0010009b          	addiw	ra,zero,1
    80000234:	00fe                	slli	ra,ra,0x1f
    80000236:	411d                	li	sp,7
    80000238:	0020d733          	srl	a4,ra,sp
    8000023c:	833a                	mv	t1,a4
    8000023e:	0205                	addi	tp,tp,1
    80000240:	4289                	li	t0,2
    80000242:	fe5217e3          	bne	tp,t0,80000230 <test_25+0x2>
    80000246:	010003b7          	lui	t2,0x1000
    8000024a:	41e5                	li	gp,25
    8000024c:	24731263          	bne	t1,t2,80000490 <fail>

0000000080000250 <test_26>:
    80000250:	4201                	li	tp,0
    80000252:	0010009b          	addiw	ra,zero,1
    80000256:	00fe                	slli	ra,ra,0x1f
    80000258:	4139                	li	sp,14
    8000025a:	0020d733          	srl	a4,ra,sp
    8000025e:	0001                	nop
    80000260:	833a                	mv	t1,a4
    80000262:	0205                	addi	tp,tp,1
    80000264:	4289                	li	t0,2
    80000266:	fe5216e3          	bne	tp,t0,80000252 <test_26+0x2>
    8000026a:	000203b7          	lui	t2,0x20
    8000026e:	41e9                	li	gp,26
    80000270:	22731063          	bne	t1,t2,80000490 <fail>

0000000080000274 <test_27>:
    80000274:	4201                	li	tp,0
    80000276:	0010009b          	addiw	ra,zero,1
    8000027a:	00fe                	slli	ra,ra,0x1f
    8000027c:	417d                	li	sp,31
    8000027e:	0020d733          	srl	a4,ra,sp
    80000282:	0001                	nop
    80000284:	0001                	nop
    80000286:	833a                	mv	t1,a4
    80000288:	0205                	addi	tp,tp,1
    8000028a:	4289                	li	t0,2
    8000028c:	fe5215e3          	bne	tp,t0,80000276 <test_27+0x2>
    80000290:	4385                	li	t2,1
    80000292:	41ed                	li	gp,27
    80000294:	1e731e63          	bne	t1,t2,80000490 <fail>

0000000080000298 <test_28>:
    80000298:	4201                	li	tp,0
    8000029a:	0010009b          	addiw	ra,zero,1
    8000029e:	00fe                	slli	ra,ra,0x1f
    800002a0:	411d                	li	sp,7
    800002a2:	0020d733          	srl	a4,ra,sp
    800002a6:	0205                	addi	tp,tp,1
    800002a8:	4289                	li	t0,2
    800002aa:	fe5218e3          	bne	tp,t0,8000029a <test_28+0x2>
    800002ae:	010003b7          	lui	t2,0x1000
    800002b2:	41f1                	li	gp,28
    800002b4:	1c771e63          	bne	a4,t2,80000490 <fail>

00000000800002b8 <test_29>:
    800002b8:	4201                	li	tp,0
    800002ba:	0010009b          	addiw	ra,zero,1
    800002be:	00fe                	slli	ra,ra,0x1f
    800002c0:	4139                	li	sp,14
    800002c2:	0001                	nop
    800002c4:	0020d733          	srl	a4,ra,sp
    800002c8:	0205                	addi	tp,tp,1
    800002ca:	4289                	li	t0,2
    800002cc:	fe5217e3          	bne	tp,t0,800002ba <test_29+0x2>
    800002d0:	000203b7          	lui	t2,0x20
    800002d4:	41f5                	li	gp,29
    800002d6:	1a771d63          	bne	a4,t2,80000490 <fail>

00000000800002da <test_30>:
    800002da:	4201                	li	tp,0
    800002dc:	0010009b          	addiw	ra,zero,1
    800002e0:	00fe                	slli	ra,ra,0x1f
    800002e2:	417d                	li	sp,31
    800002e4:	0001                	nop
    800002e6:	0001                	nop
    800002e8:	0020d733          	srl	a4,ra,sp
    800002ec:	0205                	addi	tp,tp,1
    800002ee:	4289                	li	t0,2
    800002f0:	fe5216e3          	bne	tp,t0,800002dc <test_30+0x2>
    800002f4:	4385                	li	t2,1
    800002f6:	41f9                	li	gp,30
    800002f8:	18771c63          	bne	a4,t2,80000490 <fail>

00000000800002fc <test_31>:
    800002fc:	4201                	li	tp,0
    800002fe:	0010009b          	addiw	ra,zero,1
    80000302:	00fe                	slli	ra,ra,0x1f
    80000304:	0001                	nop
    80000306:	411d                	li	sp,7
    80000308:	0020d733          	srl	a4,ra,sp
    8000030c:	0205                	addi	tp,tp,1
    8000030e:	4289                	li	t0,2
    80000310:	fe5217e3          	bne	tp,t0,800002fe <test_31+0x2>
    80000314:	010003b7          	lui	t2,0x1000
    80000318:	41fd                	li	gp,31
    8000031a:	16771b63          	bne	a4,t2,80000490 <fail>

000000008000031e <test_32>:
    8000031e:	4201                	li	tp,0
    80000320:	0010009b          	addiw	ra,zero,1
    80000324:	00fe                	slli	ra,ra,0x1f
    80000326:	0001                	nop
    80000328:	4139                	li	sp,14
    8000032a:	0001                	nop
    8000032c:	0020d733          	srl	a4,ra,sp
    80000330:	0205                	addi	tp,tp,1
    80000332:	4289                	li	t0,2
    80000334:	fe5216e3          	bne	tp,t0,80000320 <test_32+0x2>
    80000338:	000203b7          	lui	t2,0x20
    8000033c:	02000193          	li	gp,32
    80000340:	14771863          	bne	a4,t2,80000490 <fail>

0000000080000344 <test_33>:
    80000344:	4201                	li	tp,0
    80000346:	0010009b          	addiw	ra,zero,1
    8000034a:	00fe                	slli	ra,ra,0x1f
    8000034c:	0001                	nop
    8000034e:	0001                	nop
    80000350:	417d                	li	sp,31
    80000352:	0020d733          	srl	a4,ra,sp
    80000356:	0205                	addi	tp,tp,1
    80000358:	4289                	li	t0,2
    8000035a:	fe5216e3          	bne	tp,t0,80000346 <test_33+0x2>
    8000035e:	4385                	li	t2,1
    80000360:	02100193          	li	gp,33
    80000364:	12771663          	bne	a4,t2,80000490 <fail>

0000000080000368 <test_34>:
    80000368:	4201                	li	tp,0
    8000036a:	411d                	li	sp,7
    8000036c:	0010009b          	addiw	ra,zero,1
    80000370:	00fe                	slli	ra,ra,0x1f
    80000372:	0020d733          	srl	a4,ra,sp
    80000376:	0205                	addi	tp,tp,1
    80000378:	4289                	li	t0,2
    8000037a:	fe5218e3          	bne	tp,t0,8000036a <test_34+0x2>
    8000037e:	010003b7          	lui	t2,0x1000
    80000382:	02200193          	li	gp,34
    80000386:	10771563          	bne	a4,t2,80000490 <fail>

000000008000038a <test_35>:
    8000038a:	4201                	li	tp,0
    8000038c:	4139                	li	sp,14
    8000038e:	0010009b          	addiw	ra,zero,1
    80000392:	00fe                	slli	ra,ra,0x1f
    80000394:	0001                	nop
    80000396:	0020d733          	srl	a4,ra,sp
    8000039a:	0205                	addi	tp,tp,1
    8000039c:	4289                	li	t0,2
    8000039e:	fe5217e3          	bne	tp,t0,8000038c <test_35+0x2>
    800003a2:	000203b7          	lui	t2,0x20
    800003a6:	02300193          	li	gp,35
    800003aa:	0e771363          	bne	a4,t2,80000490 <fail>

00000000800003ae <test_36>:
    800003ae:	4201                	li	tp,0
    800003b0:	417d                	li	sp,31
    800003b2:	0010009b          	addiw	ra,zero,1
    800003b6:	00fe                	slli	ra,ra,0x1f
    800003b8:	0001                	nop
    800003ba:	0001                	nop
    800003bc:	0020d733          	srl	a4,ra,sp
    800003c0:	0205                	addi	tp,tp,1
    800003c2:	4289                	li	t0,2
    800003c4:	fe5216e3          	bne	tp,t0,800003b0 <test_36+0x2>
    800003c8:	4385                	li	t2,1
    800003ca:	02400193          	li	gp,36
    800003ce:	0c771163          	bne	a4,t2,80000490 <fail>

00000000800003d2 <test_37>:
    800003d2:	4201                	li	tp,0
    800003d4:	411d                	li	sp,7
    800003d6:	0001                	nop
    800003d8:	0010009b          	addiw	ra,zero,1
    800003dc:	00fe                	slli	ra,ra,0x1f
    800003de:	0020d733          	srl	a4,ra,sp
    800003e2:	0205                	addi	tp,tp,1
    800003e4:	4289                	li	t0,2
    800003e6:	fe5217e3          	bne	tp,t0,800003d4 <test_37+0x2>
    800003ea:	010003b7          	lui	t2,0x1000
    800003ee:	02500193          	li	gp,37
    800003f2:	08771f63          	bne	a4,t2,80000490 <fail>

00000000800003f6 <test_38>:
    800003f6:	4201                	li	tp,0
    800003f8:	4139                	li	sp,14
    800003fa:	0001                	nop
    800003fc:	0010009b          	addiw	ra,zero,1
    80000400:	00fe                	slli	ra,ra,0x1f
    80000402:	0001                	nop
    80000404:	0020d733          	srl	a4,ra,sp
    80000408:	0205                	addi	tp,tp,1
    8000040a:	4289                	li	t0,2
    8000040c:	fe5216e3          	bne	tp,t0,800003f8 <test_38+0x2>
    80000410:	000203b7          	lui	t2,0x20
    80000414:	02600193          	li	gp,38
    80000418:	06771c63          	bne	a4,t2,80000490 <fail>

000000008000041c <test_39>:
    8000041c:	4201                	li	tp,0
    8000041e:	417d                	li	sp,31
    80000420:	0001                	nop
    80000422:	0001                	nop
    80000424:	0010009b          	addiw	ra,zero,1
    80000428:	00fe                	slli	ra,ra,0x1f
    8000042a:	0020d733          	srl	a4,ra,sp
    8000042e:	0205                	addi	tp,tp,1
    80000430:	4289                	li	t0,2
    80000432:	fe5216e3          	bne	tp,t0,8000041e <test_39+0x2>
    80000436:	4385                	li	t2,1
    80000438:	02700193          	li	gp,39
    8000043c:	04771a63          	bne	a4,t2,80000490 <fail>

0000000080000440 <test_40>:
    80000440:	40bd                	li	ra,15
    80000442:	00105133          	srl	sp,zero,ra
    80000446:	4381                	li	t2,0
    80000448:	02800193          	li	gp,40
    8000044c:	04711263          	bne	sp,t2,80000490 <fail>

0000000080000450 <test_41>:
    80000450:	02000093          	li	ra,32
    80000454:	0000d133          	srl	sp,ra,zero
    80000458:	02000393          	li	t2,32
    8000045c:	02900193          	li	gp,41
    80000460:	02711863          	bne	sp,t2,80000490 <fail>

0000000080000464 <test_42>:
    80000464:	000050b3          	srl	ra,zero,zero
    80000468:	4381                	li	t2,0
    8000046a:	02a00193          	li	gp,42
    8000046e:	02709163          	bne	ra,t2,80000490 <fail>

0000000080000472 <test_43>:
    80000472:	40000093          	li	ra,1024
    80000476:	00001137          	lui	sp,0x1
    8000047a:	8001011b          	addiw	sp,sp,-2048
    8000047e:	0020d033          	srl	zero,ra,sp
    80000482:	4381                	li	t2,0
    80000484:	02b00193          	li	gp,43
    80000488:	00701463          	bne	zero,t2,80000490 <fail>
    8000048c:	00301563          	bne	zero,gp,80000496 <pass>

0000000080000490 <fail>:
    80000490:	4505                	li	a0,1
    80000492:	0300006f          	j	800004c2 <halt>

0000000080000496 <pass>:
    80000496:	4501                	li	a0,0
    80000498:	02a0006f          	j	800004c2 <halt>
	...

00000000800004c2 <halt>:
    800004c2:	852a                	mv	a0,a0
    800004c4:	0000006b          	0x6b
    800004c8:	a001                	j	800004c8 <halt+0x6>
