
/home/mandelbrot/ics2020/am-kernels/tests/riscv-tests/build/srliw-riscv64-nemu.elf：     文件格式 elf64-littleriscv


Disassembly of section .text:

0000000080000000 <_start>:
    80000000:	800000b7          	lui	ra,0x80000
    80000004:	0000d71b          	srliw	a4,ra,0x0
    80000008:	800003b7          	lui	t2,0x80000
    8000000c:	4189                	li	gp,2
    8000000e:	28771563          	bne	a4,t2,80000298 <fail>

0000000080000012 <test_3>:
    80000012:	800000b7          	lui	ra,0x80000
    80000016:	0010d71b          	srliw	a4,ra,0x1
    8000001a:	400003b7          	lui	t2,0x40000
    8000001e:	418d                	li	gp,3
    80000020:	26771c63          	bne	a4,t2,80000298 <fail>

0000000080000024 <test_4>:
    80000024:	800000b7          	lui	ra,0x80000
    80000028:	0070d71b          	srliw	a4,ra,0x7
    8000002c:	010003b7          	lui	t2,0x1000
    80000030:	4191                	li	gp,4
    80000032:	26771363          	bne	a4,t2,80000298 <fail>

0000000080000036 <test_5>:
    80000036:	800000b7          	lui	ra,0x80000
    8000003a:	00e0d71b          	srliw	a4,ra,0xe
    8000003e:	000203b7          	lui	t2,0x20
    80000042:	4195                	li	gp,5
    80000044:	24771a63          	bne	a4,t2,80000298 <fail>

0000000080000048 <test_6>:
    80000048:	800000b7          	lui	ra,0x80000
    8000004c:	2085                	addiw	ra,ra,1
    8000004e:	01f0d71b          	srliw	a4,ra,0x1f
    80000052:	4385                	li	t2,1
    80000054:	4199                	li	gp,6
    80000056:	24771163          	bne	a4,t2,80000298 <fail>

000000008000005a <test_7>:
    8000005a:	50fd                	li	ra,-1
    8000005c:	0000d71b          	srliw	a4,ra,0x0
    80000060:	53fd                	li	t2,-1
    80000062:	419d                	li	gp,7
    80000064:	22771a63          	bne	a4,t2,80000298 <fail>

0000000080000068 <test_8>:
    80000068:	50fd                	li	ra,-1
    8000006a:	0010d71b          	srliw	a4,ra,0x1
    8000006e:	800003b7          	lui	t2,0x80000
    80000072:	33fd                	addiw	t2,t2,-1
    80000074:	41a1                	li	gp,8
    80000076:	22771163          	bne	a4,t2,80000298 <fail>

000000008000007a <test_9>:
    8000007a:	50fd                	li	ra,-1
    8000007c:	0070d71b          	srliw	a4,ra,0x7
    80000080:	020003b7          	lui	t2,0x2000
    80000084:	33fd                	addiw	t2,t2,-1
    80000086:	41a5                	li	gp,9
    80000088:	20771863          	bne	a4,t2,80000298 <fail>

000000008000008c <test_10>:
    8000008c:	50fd                	li	ra,-1
    8000008e:	00e0d71b          	srliw	a4,ra,0xe
    80000092:	000403b7          	lui	t2,0x40
    80000096:	33fd                	addiw	t2,t2,-1
    80000098:	41a9                	li	gp,10
    8000009a:	1e771f63          	bne	a4,t2,80000298 <fail>

000000008000009e <test_11>:
    8000009e:	50fd                	li	ra,-1
    800000a0:	01f0d71b          	srliw	a4,ra,0x1f
    800000a4:	4385                	li	t2,1
    800000a6:	41ad                	li	gp,11
    800000a8:	1e771863          	bne	a4,t2,80000298 <fail>

00000000800000ac <test_12>:
    800000ac:	212120b7          	lui	ra,0x21212
    800000b0:	1210809b          	addiw	ra,ra,289
    800000b4:	0000d71b          	srliw	a4,ra,0x0
    800000b8:	212123b7          	lui	t2,0x21212
    800000bc:	1213839b          	addiw	t2,t2,289
    800000c0:	41b1                	li	gp,12
    800000c2:	1c771b63          	bne	a4,t2,80000298 <fail>

00000000800000c6 <test_13>:
    800000c6:	212120b7          	lui	ra,0x21212
    800000ca:	1210809b          	addiw	ra,ra,289
    800000ce:	0010d71b          	srliw	a4,ra,0x1
    800000d2:	109093b7          	lui	t2,0x10909
    800000d6:	0903839b          	addiw	t2,t2,144
    800000da:	41b5                	li	gp,13
    800000dc:	1a771e63          	bne	a4,t2,80000298 <fail>

00000000800000e0 <test_14>:
    800000e0:	212120b7          	lui	ra,0x21212
    800000e4:	1210809b          	addiw	ra,ra,289
    800000e8:	0070d71b          	srliw	a4,ra,0x7
    800000ec:	004243b7          	lui	t2,0x424
    800000f0:	2423839b          	addiw	t2,t2,578
    800000f4:	41b9                	li	gp,14
    800000f6:	1a771163          	bne	a4,t2,80000298 <fail>

00000000800000fa <test_15>:
    800000fa:	212120b7          	lui	ra,0x21212
    800000fe:	1210809b          	addiw	ra,ra,289
    80000102:	00e0d71b          	srliw	a4,ra,0xe
    80000106:	63a1                	lui	t2,0x8
    80000108:	4843839b          	addiw	t2,t2,1156
    8000010c:	41bd                	li	gp,15
    8000010e:	18771563          	bne	a4,t2,80000298 <fail>

0000000080000112 <test_16>:
    80000112:	212120b7          	lui	ra,0x21212
    80000116:	1210809b          	addiw	ra,ra,289
    8000011a:	01f0d71b          	srliw	a4,ra,0x1f
    8000011e:	4381                	li	t2,0
    80000120:	41c1                	li	gp,16
    80000122:	16771b63          	bne	a4,t2,80000298 <fail>

0000000080000126 <test_44>:
    80000126:	fff120b7          	lui	ra,0xfff12
    8000012a:	3450809b          	addiw	ra,ra,837
    8000012e:	00b2                	slli	ra,ra,0xc
    80000130:	67808093          	addi	ra,ra,1656 # fffffffffff12678 <_end+0xffffffff7fc91678>
    80000134:	0000d71b          	srliw	a4,ra,0x0
    80000138:	123453b7          	lui	t2,0x12345
    8000013c:	6783839b          	addiw	t2,t2,1656
    80000140:	02c00193          	li	gp,44
    80000144:	14771a63          	bne	a4,t2,80000298 <fail>

0000000080000148 <test_45>:
    80000148:	fff120b7          	lui	ra,0xfff12
    8000014c:	3450809b          	addiw	ra,ra,837
    80000150:	00b2                	slli	ra,ra,0xc
    80000152:	67808093          	addi	ra,ra,1656 # fffffffffff12678 <_end+0xffffffff7fc91678>
    80000156:	0040d71b          	srliw	a4,ra,0x4
    8000015a:	012343b7          	lui	t2,0x1234
    8000015e:	5673839b          	addiw	t2,t2,1383
    80000162:	02d00193          	li	gp,45
    80000166:	12771963          	bne	a4,t2,80000298 <fail>

000000008000016a <test_46>:
    8000016a:	000920b7          	lui	ra,0x92
    8000016e:	3450809b          	addiw	ra,ra,837
    80000172:	00b2                	slli	ra,ra,0xc
    80000174:	67808093          	addi	ra,ra,1656 # 92678 <_start-0x7ff6d988>
    80000178:	0000d71b          	srliw	a4,ra,0x0
    8000017c:	923453b7          	lui	t2,0x92345
    80000180:	6783839b          	addiw	t2,t2,1656
    80000184:	02e00193          	li	gp,46
    80000188:	10771863          	bne	a4,t2,80000298 <fail>

000000008000018c <test_47>:
    8000018c:	000920b7          	lui	ra,0x92
    80000190:	3450809b          	addiw	ra,ra,837
    80000194:	00b2                	slli	ra,ra,0xc
    80000196:	67808093          	addi	ra,ra,1656 # 92678 <_start-0x7ff6d988>
    8000019a:	0040d71b          	srliw	a4,ra,0x4
    8000019e:	092343b7          	lui	t2,0x9234
    800001a2:	5673839b          	addiw	t2,t2,1383
    800001a6:	02f00193          	li	gp,47
    800001aa:	0e771763          	bne	a4,t2,80000298 <fail>

00000000800001ae <test_17>:
    800001ae:	800000b7          	lui	ra,0x80000
    800001b2:	0070d09b          	srliw	ra,ra,0x7
    800001b6:	010003b7          	lui	t2,0x1000
    800001ba:	41c5                	li	gp,17
    800001bc:	0c709e63          	bne	ra,t2,80000298 <fail>

00000000800001c0 <test_18>:
    800001c0:	4201                	li	tp,0
    800001c2:	800000b7          	lui	ra,0x80000
    800001c6:	0070d71b          	srliw	a4,ra,0x7
    800001ca:	833a                	mv	t1,a4
    800001cc:	0205                	addi	tp,tp,1
    800001ce:	4289                	li	t0,2
    800001d0:	fe5219e3          	bne	tp,t0,800001c2 <test_18+0x2>
    800001d4:	010003b7          	lui	t2,0x1000
    800001d8:	41c9                	li	gp,18
    800001da:	0a731f63          	bne	t1,t2,80000298 <fail>

00000000800001de <test_19>:
    800001de:	4201                	li	tp,0
    800001e0:	800000b7          	lui	ra,0x80000
    800001e4:	00e0d71b          	srliw	a4,ra,0xe
    800001e8:	0001                	nop
    800001ea:	833a                	mv	t1,a4
    800001ec:	0205                	addi	tp,tp,1
    800001ee:	4289                	li	t0,2
    800001f0:	fe5218e3          	bne	tp,t0,800001e0 <test_19+0x2>
    800001f4:	000203b7          	lui	t2,0x20
    800001f8:	41cd                	li	gp,19
    800001fa:	08731f63          	bne	t1,t2,80000298 <fail>

00000000800001fe <test_20>:
    800001fe:	4201                	li	tp,0
    80000200:	800000b7          	lui	ra,0x80000
    80000204:	2085                	addiw	ra,ra,1
    80000206:	01f0d71b          	srliw	a4,ra,0x1f
    8000020a:	0001                	nop
    8000020c:	0001                	nop
    8000020e:	833a                	mv	t1,a4
    80000210:	0205                	addi	tp,tp,1
    80000212:	4289                	li	t0,2
    80000214:	fe5216e3          	bne	tp,t0,80000200 <test_20+0x2>
    80000218:	4385                	li	t2,1
    8000021a:	41d1                	li	gp,20
    8000021c:	06731e63          	bne	t1,t2,80000298 <fail>

0000000080000220 <test_21>:
    80000220:	4201                	li	tp,0
    80000222:	800000b7          	lui	ra,0x80000
    80000226:	0070d71b          	srliw	a4,ra,0x7
    8000022a:	0205                	addi	tp,tp,1
    8000022c:	4289                	li	t0,2
    8000022e:	fe521ae3          	bne	tp,t0,80000222 <test_21+0x2>
    80000232:	010003b7          	lui	t2,0x1000
    80000236:	41d5                	li	gp,21
    80000238:	06771063          	bne	a4,t2,80000298 <fail>

000000008000023c <test_22>:
    8000023c:	4201                	li	tp,0
    8000023e:	800000b7          	lui	ra,0x80000
    80000242:	0001                	nop
    80000244:	00e0d71b          	srliw	a4,ra,0xe
    80000248:	0205                	addi	tp,tp,1
    8000024a:	4289                	li	t0,2
    8000024c:	fe5219e3          	bne	tp,t0,8000023e <test_22+0x2>
    80000250:	000203b7          	lui	t2,0x20
    80000254:	41d9                	li	gp,22
    80000256:	04771163          	bne	a4,t2,80000298 <fail>

000000008000025a <test_23>:
    8000025a:	4201                	li	tp,0
    8000025c:	800000b7          	lui	ra,0x80000
    80000260:	2085                	addiw	ra,ra,1
    80000262:	0001                	nop
    80000264:	0001                	nop
    80000266:	01f0d71b          	srliw	a4,ra,0x1f
    8000026a:	0205                	addi	tp,tp,1
    8000026c:	4289                	li	t0,2
    8000026e:	fe5217e3          	bne	tp,t0,8000025c <test_23+0x2>
    80000272:	4385                	li	t2,1
    80000274:	41dd                	li	gp,23
    80000276:	02771163          	bne	a4,t2,80000298 <fail>

000000008000027a <test_24>:
    8000027a:	01f0509b          	srliw	ra,zero,0x1f
    8000027e:	4381                	li	t2,0
    80000280:	41e1                	li	gp,24
    80000282:	00709b63          	bne	ra,t2,80000298 <fail>

0000000080000286 <test_25>:
    80000286:	40fd                	li	ra,31
    80000288:	01c0d01b          	srliw	zero,ra,0x1c
    8000028c:	4381                	li	t2,0
    8000028e:	41e5                	li	gp,25
    80000290:	00701463          	bne	zero,t2,80000298 <fail>
    80000294:	00301563          	bne	zero,gp,8000029e <pass>

0000000080000298 <fail>:
    80000298:	4505                	li	a0,1
    8000029a:	0280006f          	j	800002c2 <halt>

000000008000029e <pass>:
    8000029e:	4501                	li	a0,0
    800002a0:	0220006f          	j	800002c2 <halt>
	...

00000000800002c2 <halt>:
    800002c2:	852a                	mv	a0,a0
    800002c4:	0000006b          	0x6b
    800002c8:	a001                	j	800002c8 <halt+0x6>
