
/home/mandelbrot/ics2020/am-kernels/tests/cpu-tests/build/string-riscv64-nemu.elf：     文件格式 elf64-littleriscv


Disassembly of section .text:

0000000080000000 <_start>:
    80000000:	00000413          	li	s0,0
    80000004:	00281117          	auipc	sp,0x281
    80000008:	ffc10113          	addi	sp,sp,-4 # 80281000 <_end>
    8000000c:	128000ef          	jal	ra,80000134 <_trm_init>

0000000080000010 <check>:
    80000010:	00050463          	beqz	a0,80000018 <check+0x8>
    80000014:	00008067          	ret
    80000018:	ff010113          	addi	sp,sp,-16
    8000001c:	00100513          	li	a0,1
    80000020:	00113423          	sd	ra,8(sp)
    80000024:	104000ef          	jal	ra,80000128 <halt>

0000000080000028 <main>:
    80000028:	fe010113          	addi	sp,sp,-32
    8000002c:	00813823          	sd	s0,16(sp)
    80000030:	00000417          	auipc	s0,0x0
    80000034:	2b840413          	addi	s0,s0,696 # 800002e8 <s>
    80000038:	01043583          	ld	a1,16(s0)
    8000003c:	00043503          	ld	a0,0(s0)
    80000040:	00113c23          	sd	ra,24(sp)
    80000044:	00913423          	sd	s1,8(sp)
    80000048:	180000ef          	jal	ra,800001c8 <strcmp>
    8000004c:	00153513          	seqz	a0,a0
    80000050:	fc1ff0ef          	jal	ra,80000010 <check>
    80000054:	00843583          	ld	a1,8(s0)
    80000058:	00043503          	ld	a0,0(s0)
    8000005c:	00000497          	auipc	s1,0x0
    80000060:	2c448493          	addi	s1,s1,708 # 80000320 <str>
    80000064:	164000ef          	jal	ra,800001c8 <strcmp>
    80000068:	01f5551b          	srliw	a0,a0,0x1f
    8000006c:	fa5ff0ef          	jal	ra,80000010 <check>
    80000070:	00843583          	ld	a1,8(s0)
    80000074:	00043503          	ld	a0,0(s0)
    80000078:	00158593          	addi	a1,a1,1
    8000007c:	00150513          	addi	a0,a0,1
    80000080:	148000ef          	jal	ra,800001c8 <strcmp>
    80000084:	01f5551b          	srliw	a0,a0,0x1f
    80000088:	f89ff0ef          	jal	ra,80000010 <check>
    8000008c:	00843583          	ld	a1,8(s0)
    80000090:	00043503          	ld	a0,0(s0)
    80000094:	00258593          	addi	a1,a1,2
    80000098:	00250513          	addi	a0,a0,2
    8000009c:	12c000ef          	jal	ra,800001c8 <strcmp>
    800000a0:	01f5551b          	srliw	a0,a0,0x1f
    800000a4:	f6dff0ef          	jal	ra,80000010 <check>
    800000a8:	00843583          	ld	a1,8(s0)
    800000ac:	00043503          	ld	a0,0(s0)
    800000b0:	00358593          	addi	a1,a1,3
    800000b4:	00350513          	addi	a0,a0,3
    800000b8:	110000ef          	jal	ra,800001c8 <strcmp>
    800000bc:	01f5551b          	srliw	a0,a0,0x1f
    800000c0:	f51ff0ef          	jal	ra,80000010 <check>
    800000c4:	00000597          	auipc	a1,0x0
    800000c8:	25458593          	addi	a1,a1,596 # 80000318 <str1>
    800000cc:	00048513          	mv	a0,s1
    800000d0:	084000ef          	jal	ra,80000154 <strcpy>
    800000d4:	01843583          	ld	a1,24(s0)
    800000d8:	0a4000ef          	jal	ra,8000017c <strcat>
    800000dc:	02043583          	ld	a1,32(s0)
    800000e0:	0e8000ef          	jal	ra,800001c8 <strcmp>
    800000e4:	00153513          	seqz	a0,a0
    800000e8:	f29ff0ef          	jal	ra,80000010 <check>
    800000ec:	00500613          	li	a2,5
    800000f0:	02300593          	li	a1,35
    800000f4:	00048513          	mv	a0,s1
    800000f8:	114000ef          	jal	ra,8000020c <memset>
    800000fc:	02843583          	ld	a1,40(s0)
    80000100:	00500613          	li	a2,5
    80000104:	128000ef          	jal	ra,8000022c <memcmp>
    80000108:	00153513          	seqz	a0,a0
    8000010c:	f05ff0ef          	jal	ra,80000010 <check>
    80000110:	01813083          	ld	ra,24(sp)
    80000114:	01013403          	ld	s0,16(sp)
    80000118:	00813483          	ld	s1,8(sp)
    8000011c:	00000513          	li	a0,0
    80000120:	02010113          	addi	sp,sp,32
    80000124:	00008067          	ret

0000000080000128 <halt>:
    80000128:	00050513          	mv	a0,a0
    8000012c:	0000006b          	0x6b
    80000130:	0000006f          	j	80000130 <halt+0x8>

0000000080000134 <_trm_init>:
    80000134:	ff010113          	addi	sp,sp,-16
    80000138:	00000517          	auipc	a0,0x0
    8000013c:	1a850513          	addi	a0,a0,424 # 800002e0 <mainargs>
    80000140:	00113423          	sd	ra,8(sp)
    80000144:	ee5ff0ef          	jal	ra,80000028 <main>
    80000148:	00050513          	mv	a0,a0
    8000014c:	0000006b          	0x6b
    80000150:	0000006f          	j	80000150 <_trm_init+0x1c>

0000000080000154 <strcpy>:
    80000154:	0005c783          	lbu	a5,0(a1)
    80000158:	00050713          	mv	a4,a0
    8000015c:	00078c63          	beqz	a5,80000174 <strcpy+0x20>
    80000160:	00f70023          	sb	a5,0(a4)
    80000164:	0015c783          	lbu	a5,1(a1)
    80000168:	00158593          	addi	a1,a1,1
    8000016c:	00170713          	addi	a4,a4,1
    80000170:	fe0798e3          	bnez	a5,80000160 <strcpy+0xc>
    80000174:	00070023          	sb	zero,0(a4)
    80000178:	00008067          	ret

000000008000017c <strcat>:
    8000017c:	00054783          	lbu	a5,0(a0)
    80000180:	02078663          	beqz	a5,800001ac <strcat+0x30>
    80000184:	00050793          	mv	a5,a0
    80000188:	0017c703          	lbu	a4,1(a5)
    8000018c:	00178793          	addi	a5,a5,1
    80000190:	fe071ce3          	bnez	a4,80000188 <strcat+0xc>
    80000194:	0005c703          	lbu	a4,0(a1)
    80000198:	00178793          	addi	a5,a5,1
    8000019c:	00158593          	addi	a1,a1,1
    800001a0:	fee78fa3          	sb	a4,-1(a5)
    800001a4:	fe0718e3          	bnez	a4,80000194 <strcat+0x18>
    800001a8:	00008067          	ret
    800001ac:	0005c703          	lbu	a4,0(a1)
    800001b0:	00050793          	mv	a5,a0
    800001b4:	00178793          	addi	a5,a5,1
    800001b8:	fee78fa3          	sb	a4,-1(a5)
    800001bc:	00158593          	addi	a1,a1,1
    800001c0:	fc071ae3          	bnez	a4,80000194 <strcat+0x18>
    800001c4:	fe5ff06f          	j	800001a8 <strcat+0x2c>

00000000800001c8 <strcmp>:
    800001c8:	0005c683          	lbu	a3,0(a1)
    800001cc:	00050713          	mv	a4,a0
    800001d0:	00054503          	lbu	a0,0(a0)
    800001d4:	40d5053b          	subw	a0,a0,a3
    800001d8:	00050c63          	beqz	a0,800001f0 <strcmp+0x28>
    800001dc:	02c0006f          	j	80000208 <strcmp+0x40>
    800001e0:	0005c683          	lbu	a3,0(a1)
    800001e4:	00074783          	lbu	a5,0(a4)
    800001e8:	40d787bb          	subw	a5,a5,a3
    800001ec:	00079a63          	bnez	a5,80000200 <strcmp+0x38>
    800001f0:	00170713          	addi	a4,a4,1
    800001f4:	00158593          	addi	a1,a1,1
    800001f8:	fe0694e3          	bnez	a3,800001e0 <strcmp+0x18>
    800001fc:	00008067          	ret
    80000200:	00078513          	mv	a0,a5
    80000204:	00008067          	ret
    80000208:	00008067          	ret

000000008000020c <memset>:
    8000020c:	0ff5f593          	zext.b	a1,a1
    80000210:	00c50733          	add	a4,a0,a2
    80000214:	00050793          	mv	a5,a0
    80000218:	00060863          	beqz	a2,80000228 <memset+0x1c>
    8000021c:	00178793          	addi	a5,a5,1
    80000220:	feb78fa3          	sb	a1,-1(a5)
    80000224:	fee79ce3          	bne	a5,a4,8000021c <memset+0x10>
    80000228:	00008067          	ret

000000008000022c <memcmp>:
    8000022c:	00050793          	mv	a5,a0
    80000230:	02060863          	beqz	a2,80000260 <memcmp+0x34>
    80000234:	00c50633          	add	a2,a0,a2
    80000238:	0080006f          	j	80000240 <memcmp+0x14>
    8000023c:	02c78063          	beq	a5,a2,8000025c <memcmp+0x30>
    80000240:	0007c503          	lbu	a0,0(a5)
    80000244:	0005c703          	lbu	a4,0(a1)
    80000248:	00178793          	addi	a5,a5,1
    8000024c:	00158593          	addi	a1,a1,1
    80000250:	40e5053b          	subw	a0,a0,a4
    80000254:	fe0504e3          	beqz	a0,8000023c <memcmp+0x10>
    80000258:	00008067          	ret
    8000025c:	00008067          	ret
    80000260:	00000513          	li	a0,0
    80000264:	00008067          	ret
